(dp0
S'SPEA2_100'
p1
(iGraphics.simplified_new
SolutionHolder
p2
(dp3
S'problem'
p4
S'MONRP_50_4_5_4_90'
p5
sS'repeats'
p6
(lp7
(iGraphics.simplified_new
Scores
p8
(dp9
S'pfs'
p10
I100
sS'spread'
p11
F0.8345249920266513
sS'hv'
p12
F1159117.0648
sS'igd'
p13
Nsba(iGraphics.simplified_new
Scores
p14
(dp15
g10
I100
sg11
F0.8765002971026319
sg12
F1141146.3197
sg13
Nsba(iGraphics.simplified_new
Scores
p16
(dp17
g10
I100
sg11
F0.7498282990677807
sg12
F1231610.2907
sg13
Nsba(iGraphics.simplified_new
Scores
p18
(dp19
g10
I100
sg11
F0.7686119279225735
sg12
F1290276.6678
sg13
Nsba(iGraphics.simplified_new
Scores
p20
(dp21
g10
I100
sg11
F0.8114824755957887
sg12
F1217660.5027
sg13
Nsba(iGraphics.simplified_new
Scores
p22
(dp23
g10
I100
sg11
F0.8253375431544758
sg12
F1231457.3009
sg13
Nsba(iGraphics.simplified_new
Scores
p24
(dp25
g10
I100
sg11
F0.7438287567975781
sg12
F1147663.1413
sg13
Nsba(iGraphics.simplified_new
Scores
p26
(dp27
g10
I100
sg11
F0.7823873601223347
sg12
F1208866.2943
sg13
Nsba(iGraphics.simplified_new
Scores
p28
(dp29
g10
I100
sg11
F0.8274925126704148
sg12
F1156327.7041
sg13
Nsba(iGraphics.simplified_new
Scores
p30
(dp31
g10
I100
sg11
F0.8364830941221484
sg12
F1205041.2536
sg13
Nsba(iGraphics.simplified_new
Scores
p32
(dp33
g10
I100
sg11
F0.8617533558178825
sg12
F1117998.9859
sg13
Nsba(iGraphics.simplified_new
Scores
p34
(dp35
g10
I100
sg11
F0.8073374312836125
sg12
F1159185.9337
sg13
Nsba(iGraphics.simplified_new
Scores
p36
(dp37
g10
I100
sg11
F0.8426702035879731
sg12
F1150642.4068
sg13
Nsba(iGraphics.simplified_new
Scores
p38
(dp39
g10
I100
sg11
F0.8735349175884096
sg12
F1145709.6682
sg13
Nsba(iGraphics.simplified_new
Scores
p40
(dp41
g10
I100
sg11
F0.898951194588041
sg12
F1301494.7395
sg13
Nsba(iGraphics.simplified_new
Scores
p42
(dp43
g10
I100
sg11
F0.7949364700864482
sg12
F1205478.2563
sg13
Nsba(iGraphics.simplified_new
Scores
p44
(dp45
g10
I100
sg11
F0.7717468252387164
sg12
F1137206.2835
sg13
Nsba(iGraphics.simplified_new
Scores
p46
(dp47
g10
I100
sg11
F0.9115809488343295
sg12
F1326939.6848
sg13
Nsba(iGraphics.simplified_new
Scores
p48
(dp49
g10
I100
sg11
F0.8185036357752443
sg12
F1133151.6784
sg13
Nsba(iGraphics.simplified_new
Scores
p50
(dp51
g10
I100
sg11
F0.9142320930851949
sg12
F1205078.3532
sg13
NsbasS'algorithm'
p52
S'SPEA2'
p53
sbsS'SWAY5_8192'
p54
(iGraphics.simplified_new
SolutionHolder
p55
(dp56
g4
g5
sg6
(lp57
(iGraphics.simplified_new
Scores
p58
(dp59
g10
I32
sg11
F0.678339266856132
sg12
F7052.2067
sg13
Nsba(iGraphics.simplified_new
Scores
p60
(dp61
g10
I84
sg11
F0.6750485952407612
sg12
F8282.3534
sg13
Nsba(iGraphics.simplified_new
Scores
p62
(dp63
g10
I24
sg11
F0.7268946849390675
sg12
F6102.2059
sg13
Nsba(iGraphics.simplified_new
Scores
p64
(dp65
g10
I72
sg11
F0.6432931819159157
sg12
F7916.2492
sg13
Nsba(iGraphics.simplified_new
Scores
p66
(dp67
g10
I48
sg11
F0.6424595524656859
sg12
F7576.6797
sg13
Nsba(iGraphics.simplified_new
Scores
p68
(dp69
g10
I73
sg11
F0.6462746792467509
sg12
F6496.7368
sg13
Nsba(iGraphics.simplified_new
Scores
p70
(dp71
g10
I28
sg11
F0.6497187967583902
sg12
F7042.8655
sg13
Nsba(iGraphics.simplified_new
Scores
p72
(dp73
g10
I48
sg11
F0.6639477394131124
sg12
F6966.7794
sg13
Nsba(iGraphics.simplified_new
Scores
p74
(dp75
g10
I24
sg11
F0.7942850653054888
sg12
F8504.9396
sg13
Nsba(iGraphics.simplified_new
Scores
p76
(dp77
g10
I63
sg11
F0.6895505253164822
sg12
F6925.3854
sg13
Nsba(iGraphics.simplified_new
Scores
p78
(dp79
g10
I78
sg11
F0.6287933710908691
sg12
F7299.372
sg13
Nsba(iGraphics.simplified_new
Scores
p80
(dp81
g10
I45
sg11
F0.6687184036420148
sg12
F7309.8182
sg13
Nsba(iGraphics.simplified_new
Scores
p82
(dp83
g10
I72
sg11
F0.6822376310558704
sg12
F7097.9814
sg13
Nsba(iGraphics.simplified_new
Scores
p84
(dp85
g10
I60
sg11
F0.6776381553621248
sg12
F7412.8194
sg13
Nsba(iGraphics.simplified_new
Scores
p86
(dp87
g10
I81
sg11
F0.671285668554945
sg12
F8510.7169
sg13
Nsba(iGraphics.simplified_new
Scores
p88
(dp89
g10
I63
sg11
F0.6205228060118942
sg12
F7179.5718
sg13
Nsba(iGraphics.simplified_new
Scores
p90
(dp91
g10
I64
sg11
F0.6813782250209298
sg12
F8069.2117
sg13
Nsba(iGraphics.simplified_new
Scores
p92
(dp93
g10
I48
sg11
F0.7584447057141992
sg12
F8134.7224
sg13
Nsba(iGraphics.simplified_new
Scores
p94
(dp95
g10
I28
sg11
F0.8464160782220568
sg12
F7694.1706
sg13
Nsba(iGraphics.simplified_new
Scores
p96
(dp97
g10
I64
sg11
F0.6251955399266181
sg12
F7305.0939
sg13
Nsbasg52
S'SWAY5'
p98
sbsS'SWAY5_1024'
p99
(iGraphics.simplified_new
SolutionHolder
p100
(dp101
g4
g5
sg6
(lp102
(iGraphics.simplified_new
Scores
p103
(dp104
g10
I16
sg11
F0.804861806446195
sg12
F662335.4562
sg13
Nsba(iGraphics.simplified_new
Scores
p105
(dp106
g10
I16
sg11
F0.8934540280852566
sg12
F659907.5298
sg13
Nsba(iGraphics.simplified_new
Scores
p107
(dp108
g10
I31
sg11
F0.6839324315383938
sg12
F750502.0268
sg13
Nsba(iGraphics.simplified_new
Scores
p109
(dp110
g10
I21
sg11
F0.719426039506479
sg12
F678386.9717
sg13
Nsba(iGraphics.simplified_new
Scores
p111
(dp112
g10
I24
sg11
F0.7074426479038357
sg12
F730632.4048
sg13
Nsba(iGraphics.simplified_new
Scores
p113
(dp114
g10
I18
sg11
F0.7238658333642513
sg12
F750502.0268
sg13
Nsba(iGraphics.simplified_new
Scores
p115
(dp116
g10
I21
sg11
F0.739533084895432
sg12
F807026.4895
sg13
Nsba(iGraphics.simplified_new
Scores
p117
(dp118
g10
I28
sg11
F0.7356862477964882
sg12
F851315.7517
sg13
Nsba(iGraphics.simplified_new
Scores
p119
(dp120
g10
I16
sg11
F0.8584669724579975
sg12
F807026.4895
sg13
Nsba(iGraphics.simplified_new
Scores
p121
(dp122
g10
I28
sg11
F0.7821242035635231
sg12
F707562.3207
sg13
Nsba(iGraphics.simplified_new
Scores
p123
(dp124
g10
I24
sg11
F0.7784906595017317
sg12
F851065.0318
sg13
Nsba(iGraphics.simplified_new
Scores
p125
(dp126
g10
I16
sg11
F0.7764936861210879
sg12
F850244.2061
sg13
Nsba(iGraphics.simplified_new
Scores
p127
(dp128
g10
I28
sg11
F0.773720239451021
sg12
F850008.2027
sg13
Nsba(iGraphics.simplified_new
Scores
p129
(dp130
g10
I24
sg11
F0.7981561295998946
sg12
F790462.673
sg13
Nsba(iGraphics.simplified_new
Scores
p131
(dp132
g10
I28
sg11
F0.7708222095080618
sg12
F738391.2847
sg13
Nsba(iGraphics.simplified_new
Scores
p133
(dp134
g10
I24
sg11
F0.7583141294888995
sg12
F598629.8626
sg13
Nsba(iGraphics.simplified_new
Scores
p135
(dp136
g10
I28
sg11
F0.7856118540797148
sg12
F863466.1016
sg13
Nsba(iGraphics.simplified_new
Scores
p137
(dp138
g10
I16
sg11
F0.7224062025073106
sg12
F670664.1054
sg13
Nsba(iGraphics.simplified_new
Scores
p139
(dp140
g10
I16
sg11
F0.8406459108775324
sg12
F655962.5723
sg13
Nsba(iGraphics.simplified_new
Scores
p141
(dp142
g10
I28
sg11
F0.5911740014527757
sg12
F851065.0318
sg13
Nsbasg52
S'SWAY5'
p143
sbsS'SWAY5_2048'
p144
(iGraphics.simplified_new
SolutionHolder
p145
(dp146
g4
g5
sg6
(lp147
(iGraphics.simplified_new
Scores
p148
(dp149
g10
I24
sg11
F0.7811201959620117
sg12
F698743.322
sg13
Nsba(iGraphics.simplified_new
Scores
p150
(dp151
g10
I24
sg11
F0.7369381030195391
sg12
F651172.5758
sg13
Nsba(iGraphics.simplified_new
Scores
p152
(dp153
g10
I24
sg11
F0.7009345812581418
sg12
F590265.0618
sg13
Nsba(iGraphics.simplified_new
Scores
p154
(dp155
g10
I28
sg11
F0.7629176088361838
sg12
F734173.4269
sg13
Nsba(iGraphics.simplified_new
Scores
p156
(dp157
g10
I42
sg11
F0.6928890088468944
sg12
F626961.4806
sg13
Nsba(iGraphics.simplified_new
Scores
p158
(dp159
g10
I30
sg11
F0.7354826091892075
sg12
F686553.8889
sg13
Nsba(iGraphics.simplified_new
Scores
p160
(dp161
g10
I24
sg11
F0.8245105553297318
sg12
F579080.6586
sg13
Nsba(iGraphics.simplified_new
Scores
p162
(dp163
g10
I24
sg11
F0.8215094316473676
sg12
F680949.7884
sg13
Nsba(iGraphics.simplified_new
Scores
p164
(dp165
g10
I30
sg11
F0.8485113232598962
sg12
F582376.7266
sg13
Nsba(iGraphics.simplified_new
Scores
p166
(dp167
g10
I31
sg11
F0.7244213658403401
sg12
F689632.516
sg13
Nsba(iGraphics.simplified_new
Scores
p168
(dp169
g10
I32
sg11
F0.6531686022893537
sg12
F693002.6534
sg13
Nsba(iGraphics.simplified_new
Scores
p170
(dp171
g10
I24
sg11
F0.8087499776390551
sg12
F534991.1899
sg13
Nsba(iGraphics.simplified_new
Scores
p172
(dp173
g10
I24
sg11
F0.7825407007678701
sg12
F612539.3763
sg13
Nsba(iGraphics.simplified_new
Scores
p174
(dp175
g10
I28
sg11
F0.7543424104291787
sg12
F603209.7972
sg13
Nsba(iGraphics.simplified_new
Scores
p176
(dp177
g10
I18
sg11
F0.8220080709486121
sg12
F582785.1833
sg13
Nsba(iGraphics.simplified_new
Scores
p178
(dp179
g10
I42
sg11
F0.7538717958987716
sg12
F797640.6753
sg13
Nsba(iGraphics.simplified_new
Scores
p180
(dp181
g10
I36
sg11
F0.7073433186621588
sg12
F770113.6204
sg13
Nsba(iGraphics.simplified_new
Scores
p182
(dp183
g10
I24
sg11
F0.7595731334020025
sg12
F568815.4489
sg13
Nsba(iGraphics.simplified_new
Scores
p184
(dp185
g10
I28
sg11
F0.7538125793336029
sg12
F734173.4269
sg13
Nsba(iGraphics.simplified_new
Scores
p186
(dp187
g10
I24
sg11
F0.7431060122828621
sg12
F563111.6843
sg13
Nsbasg52
S'SWAY5'
p188
sbsS'SWAY5_10000'
p189
(iGraphics.simplified_new
SolutionHolder
p190
(dp191
g4
g5
sg6
(lp192
(iGraphics.simplified_new
Scores
p193
(dp194
g10
I77
sg11
F0.7041443669491949
sg12
F7338.786
sg13
Nsba(iGraphics.simplified_new
Scores
p195
(dp196
g10
I51
sg11
F0.6998598204050845
sg12
F8452.5756
sg13
Nsba(iGraphics.simplified_new
Scores
p197
(dp198
g10
I39
sg11
F0.726629744427528
sg12
F6452.7962
sg13
Nsba(iGraphics.simplified_new
Scores
p199
(dp200
g10
I60
sg11
F0.70341795698201
sg12
F7896.6563
sg13
Nsba(iGraphics.simplified_new
Scores
p201
(dp202
g10
I87
sg11
F0.6730833606973431
sg12
F7439.2972
sg13
Nsba(iGraphics.simplified_new
Scores
p203
(dp204
g10
I75
sg11
F0.6092082582932716
sg12
F7625.0631
sg13
Nsba(iGraphics.simplified_new
Scores
p205
(dp206
g10
I59
sg11
F0.7025253623452913
sg12
F7976.9947
sg13
Nsba(iGraphics.simplified_new
Scores
p207
(dp208
g10
I58
sg11
F0.6665182255338433
sg12
F9567.194
sg13
Nsba(iGraphics.simplified_new
Scores
p209
(dp210
g10
I78
sg11
F0.6845620481155374
sg12
F7892.8799
sg13
Nsba(iGraphics.simplified_new
Scores
p211
(dp212
g10
I68
sg11
F0.7536351885464027
sg12
F8485.1286
sg13
Nsba(iGraphics.simplified_new
Scores
p213
(dp214
g10
I73
sg11
F0.7467870411353424
sg12
F7520.1383
sg13
Nsba(iGraphics.simplified_new
Scores
p215
(dp216
g10
I59
sg11
F0.6325734250382371
sg12
F8429.8772
sg13
Nsba(iGraphics.simplified_new
Scores
p217
(dp218
g10
I32
sg11
F0.6723980496540366
sg12
F6446.0654
sg13
Nsba(iGraphics.simplified_new
Scores
p219
(dp220
g10
I78
sg11
F0.6655471413978221
sg12
F7480.3558
sg13
Nsba(iGraphics.simplified_new
Scores
p221
(dp222
g10
I96
sg11
F0.6733608732690106
sg12
F8231.9335
sg13
Nsba(iGraphics.simplified_new
Scores
p223
(dp224
g10
I93
sg11
F0.6641614690683187
sg12
F7582.7207
sg13
Nsba(iGraphics.simplified_new
Scores
p225
(dp226
g10
I34
sg11
F0.6468871717336122
sg12
F7122.2766
sg13
Nsba(iGraphics.simplified_new
Scores
p227
(dp228
g10
I29
sg11
F0.7919905118589426
sg12
F6920.5242
sg13
Nsba(iGraphics.simplified_new
Scores
p229
(dp230
g10
I55
sg11
F0.650181198690804
sg12
F6781.9443
sg13
Nsba(iGraphics.simplified_new
Scores
p231
(dp232
g10
I78
sg11
F0.6519224987560037
sg12
F7364.0317
sg13
Nsbasg52
S'SWAY5'
p233
sbsS'SWAY5_4096'
p234
(iGraphics.simplified_new
SolutionHolder
p235
(dp236
g4
g5
sg6
(lp237
(iGraphics.simplified_new
Scores
p238
(dp239
g10
I31
sg11
F0.7301470189335618
sg12
F671232.1915
sg13
Nsba(iGraphics.simplified_new
Scores
p240
(dp241
g10
I63
sg11
F0.7356155495053056
sg12
F694399.4154
sg13
Nsba(iGraphics.simplified_new
Scores
p242
(dp243
g10
I63
sg11
F0.6250017001586166
sg12
F668473.7243
sg13
Nsba(iGraphics.simplified_new
Scores
p244
(dp245
g10
I48
sg11
F0.715238373826624
sg12
F792577.7014
sg13
Nsba(iGraphics.simplified_new
Scores
p246
(dp247
g10
I32
sg11
F0.6627037431216308
sg12
F784115.1777
sg13
Nsba(iGraphics.simplified_new
Scores
p248
(dp249
g10
I63
sg11
F0.6604564498843333
sg12
F694364.4934
sg13
Nsba(iGraphics.simplified_new
Scores
p250
(dp251
g10
I32
sg11
F0.7790483494571927
sg12
F724029.0359
sg13
Nsba(iGraphics.simplified_new
Scores
p252
(dp253
g10
I57
sg11
F0.660359349298612
sg12
F721576.9293
sg13
Nsba(iGraphics.simplified_new
Scores
p254
(dp255
g10
I46
sg11
F0.6373785742188041
sg12
F849066.2647
sg13
Nsba(iGraphics.simplified_new
Scores
p256
(dp257
g10
I49
sg11
F0.6742737028981548
sg12
F741114.1044
sg13
Nsba(iGraphics.simplified_new
Scores
p258
(dp259
g10
I32
sg11
F0.7080031029911078
sg12
F827561.1353
sg13
Nsba(iGraphics.simplified_new
Scores
p260
(dp261
g10
I30
sg11
F0.8203000336204659
sg12
F937724.9877
sg13
Nsba(iGraphics.simplified_new
Scores
p262
(dp263
g10
I24
sg11
F0.6681616448256583
sg12
F888730.0399
sg13
Nsba(iGraphics.simplified_new
Scores
p264
(dp265
g10
I42
sg11
F0.6356784282490352
sg12
F826933.1918
sg13
Nsba(iGraphics.simplified_new
Scores
p266
(dp267
g10
I54
sg11
F0.7832674489064688
sg12
F822188.8073
sg13
Nsba(iGraphics.simplified_new
Scores
p268
(dp269
g10
I48
sg11
F0.7324394694434383
sg12
F713992.9005
sg13
Nsba(iGraphics.simplified_new
Scores
p270
(dp271
g10
I56
sg11
F0.7122175658954385
sg12
F721712.2097
sg13
Nsba(iGraphics.simplified_new
Scores
p272
(dp273
g10
I48
sg11
F0.7025336517516071
sg12
F743374.3424
sg13
Nsba(iGraphics.simplified_new
Scores
p274
(dp275
g10
I36
sg11
F0.7844236728931299
sg12
F687555.1926
sg13
Nsba(iGraphics.simplified_new
Scores
p276
(dp277
g10
I56
sg11
F0.6413759455282443
sg12
F787975.8738
sg13
Nsbasg52
S'SWAY5'
p278
sbsS'SWAY5_512'
p279
(iGraphics.simplified_new
SolutionHolder
p280
(dp281
g4
g5
sg6
(lp282
(iGraphics.simplified_new
Scores
p283
(dp284
g10
I16
sg11
F0.7042314253332999
sg12
F894841.8164
sg13
Nsba(iGraphics.simplified_new
Scores
p285
(dp286
g10
I14
sg11
F0.8445601217002532
sg12
F604512.1497
sg13
Nsba(iGraphics.simplified_new
Scores
p287
(dp288
g10
I12
sg11
F0.9241378091379027
sg12
F569816.3105
sg13
Nsba(iGraphics.simplified_new
Scores
p289
(dp290
g10
I14
sg11
F0.7523583995951797
sg12
F665392.3283
sg13
Nsba(iGraphics.simplified_new
Scores
p291
(dp292
g10
I12
sg11
F0.935010098267586
sg12
F787680.0386
sg13
Nsba(iGraphics.simplified_new
Scores
p293
(dp294
g10
I18
sg11
F0.7410917621555483
sg12
F787680.0386
sg13
Nsba(iGraphics.simplified_new
Scores
p295
(dp296
g10
I14
sg11
F0.7860886792456272
sg12
F611973.7914
sg13
Nsba(iGraphics.simplified_new
Scores
p297
(dp298
g10
I12
sg11
F0.9030832227046225
sg12
F562618.7671
sg13
Nsba(iGraphics.simplified_new
Scores
p299
(dp300
g10
I12
sg11
F0.840131999383374
sg12
F566238.7629
sg13
Nsba(iGraphics.simplified_new
Scores
p301
(dp302
g10
I18
sg11
F0.7781330312226024
sg12
F749307.8782
sg13
Nsba(iGraphics.simplified_new
Scores
p303
(dp304
g10
I12
sg11
F0.6603556883342824
sg12
F650075.0877
sg13
Nsba(iGraphics.simplified_new
Scores
p305
(dp306
g10
I15
sg11
F0.7772918057345394
sg12
F654025.385
sg13
Nsba(iGraphics.simplified_new
Scores
p307
(dp308
g10
I14
sg11
F0.8718314428903049
sg12
F650008.4175
sg13
Nsba(iGraphics.simplified_new
Scores
p309
(dp310
g10
I16
sg11
F0.8287602578366329
sg12
F745283.1594
sg13
Nsba(iGraphics.simplified_new
Scores
p311
(dp312
g10
I18
sg11
F0.7253217209227064
sg12
F737953.7507
sg13
Nsba(iGraphics.simplified_new
Scores
p313
(dp314
g10
I16
sg11
F0.6412399234675252
sg12
F894841.8164
sg13
Nsba(iGraphics.simplified_new
Scores
p315
(dp316
g10
I12
sg11
F0.8347789442980185
sg12
F695764.9421
sg13
Nsba(iGraphics.simplified_new
Scores
p317
(dp318
g10
I12
sg11
F0.8852687312492596
sg12
F657982.4588
sg13
Nsba(iGraphics.simplified_new
Scores
p319
(dp320
g10
I18
sg11
F0.7283288471013047
sg12
F585282.3178
sg13
Nsba(iGraphics.simplified_new
Scores
p321
(dp322
g10
I15
sg11
F0.8559555831299227
sg12
F654036.5576
sg13
Nsbasg52
S'SWAY5'
p323
sbsS'SWAY5_100'
p324
(iGraphics.simplified_new
SolutionHolder
p325
(dp326
g4
g5
sg6
(lp327
(iGraphics.simplified_new
Scores
p328
(dp329
g10
I9
sg11
F0.8297691085103188
sg12
F697213.9076
sg13
Nsba(iGraphics.simplified_new
Scores
p330
(dp331
g10
I6
sg11
F0.9824479838440472
sg12
F696464.7167
sg13
Nsba(iGraphics.simplified_new
Scores
p332
(dp333
g10
I6
sg11
F0.8887481373579809
sg12
F681831.5616
sg13
Nsba(iGraphics.simplified_new
Scores
p334
(dp335
g10
I9
sg11
F0.794227505073977
sg12
F688409.3245
sg13
Nsba(iGraphics.simplified_new
Scores
p336
(dp337
g10
I6
sg11
F0.9474892386490238
sg12
F700992.2555
sg13
Nsba(iGraphics.simplified_new
Scores
p338
(dp339
g10
I9
sg11
F0.829575293940055
sg12
F719350.8438
sg13
Nsba(iGraphics.simplified_new
Scores
p340
(dp341
g10
I6
sg11
F0.7756433936510059
sg12
F697213.9076
sg13
Nsba(iGraphics.simplified_new
Scores
p342
(dp343
g10
I6
sg11
F0.8213407856841792
sg12
F697213.9076
sg13
Nsba(iGraphics.simplified_new
Scores
p344
(dp345
g10
I6
sg11
F0.9266278027231877
sg12
F783569.8031
sg13
Nsba(iGraphics.simplified_new
Scores
p346
(dp347
g10
I6
sg11
F1.0015672207460922
sg12
F662239.3665
sg13
Nsba(iGraphics.simplified_new
Scores
p348
(dp349
g10
I7
sg11
F0.7889303282338764
sg12
F681860.6765
sg13
Nsba(iGraphics.simplified_new
Scores
p350
(dp351
g10
I7
sg11
F0.9293591715493905
sg12
F783382.2013
sg13
Nsba(iGraphics.simplified_new
Scores
p352
(dp353
g10
I7
sg11
F0.8189312559524393
sg12
F635776.9968
sg13
Nsba(iGraphics.simplified_new
Scores
p354
(dp355
g10
I9
sg11
F0.8106193762842963
sg12
F628337.5557
sg13
Nsba(iGraphics.simplified_new
Scores
p356
(dp357
g10
I6
sg11
F0.9238866194746801
sg12
F696397.043
sg13
Nsba(iGraphics.simplified_new
Scores
p358
(dp359
g10
I6
sg11
F0.8008501426691973
sg12
F782974.9459
sg13
Nsba(iGraphics.simplified_new
Scores
p360
(dp361
g10
I6
sg11
F0.8343449106009683
sg12
F628005.5662
sg13
Nsba(iGraphics.simplified_new
Scores
p362
(dp363
g10
I6
sg11
F0.8986323411185079
sg12
F696464.7167
sg13
Nsba(iGraphics.simplified_new
Scores
p364
(dp365
g10
I9
sg11
F0.9945190972480088
sg12
F696970.5636
sg13
Nsba(iGraphics.simplified_new
Scores
p366
(dp367
g10
I6
sg11
F0.9395844864603725
sg12
F673947.7188
sg13
Nsbasg52
S'SWAY5'
p368
sbsS'NSGAII_100'
p369
(iGraphics.simplified_new
SolutionHolder
p370
(dp371
g4
g5
sg6
(lp372
(iGraphics.simplified_new
Scores
p373
(dp374
g10
I100
sg11
F0.8339989182992258
sg12
F1266870.3474
sg13
Nsba(iGraphics.simplified_new
Scores
p375
(dp376
g10
I100
sg11
F0.8109287488369786
sg12
F1202808.4887
sg13
Nsba(iGraphics.simplified_new
Scores
p377
(dp378
g10
I100
sg11
F0.8632949100389838
sg12
F1179201.4871
sg13
Nsba(iGraphics.simplified_new
Scores
p379
(dp380
g10
I100
sg11
F0.9227399647097774
sg12
F1239089.5819
sg13
Nsba(iGraphics.simplified_new
Scores
p381
(dp382
g10
I100
sg11
F0.8376427595053549
sg12
F1156790.4436
sg13
Nsba(iGraphics.simplified_new
Scores
p383
(dp384
g10
I100
sg11
F0.7953774640259631
sg12
F1215885.7192
sg13
Nsba(iGraphics.simplified_new
Scores
p385
(dp386
g10
I100
sg11
F0.729905198274539
sg12
F1194448.9318
sg13
Nsba(iGraphics.simplified_new
Scores
p387
(dp388
g10
I100
sg11
F0.897189519050964
sg12
F1245332.5378
sg13
Nsba(iGraphics.simplified_new
Scores
p389
(dp390
g10
I100
sg11
F0.8145390027129054
sg12
F1229729.6982
sg13
Nsba(iGraphics.simplified_new
Scores
p391
(dp392
g10
I100
sg11
F0.7754628253937452
sg12
F1162923.3754
sg13
Nsba(iGraphics.simplified_new
Scores
p393
(dp394
g10
I100
sg11
F0.8462652511479306
sg12
F1152519.904
sg13
Nsba(iGraphics.simplified_new
Scores
p395
(dp396
g10
I100
sg11
F0.8867568920732135
sg12
F1282103.2361
sg13
Nsba(iGraphics.simplified_new
Scores
p397
(dp398
g10
I100
sg11
F0.7617090953467335
sg12
F1178677.0233
sg13
Nsba(iGraphics.simplified_new
Scores
p399
(dp400
g10
I100
sg11
F0.878198030189206
sg12
F1167562.2291
sg13
Nsba(iGraphics.simplified_new
Scores
p401
(dp402
g10
I100
sg11
F0.8266235335690422
sg12
F1167609.9636
sg13
Nsba(iGraphics.simplified_new
Scores
p403
(dp404
g10
I100
sg11
F0.8794949212206465
sg12
F1184044.1232
sg13
Nsba(iGraphics.simplified_new
Scores
p405
(dp406
g10
I100
sg11
F0.8474502720017422
sg12
F1210312.7805
sg13
Nsba(iGraphics.simplified_new
Scores
p407
(dp408
g10
I100
sg11
F0.8138243036672276
sg12
F1079315.3121
sg13
Nsba(iGraphics.simplified_new
Scores
p409
(dp410
g10
I100
sg11
F0.8576719752060074
sg12
F1136255.7096
sg13
Nsba(iGraphics.simplified_new
Scores
p411
(dp412
g10
I100
sg11
F0.8254039608874341
sg12
F1188252.8357
sg13
Nsbasg52
S'NSGAII'
p413
sbs.