(dp0
S'SPEA2_100'
p1
(iGraphics.simplified_new
SolutionHolder
p2
(dp3
S'problem'
p4
S'MONRP_50_4_5_0_90'
p5
sS'repeats'
p6
(lp7
(iGraphics.simplified_new
Scores
p8
(dp9
S'pfs'
p10
I100
sS'spread'
p11
F0.7530298090187211
sS'hv'
p12
F1080693.623
sS'igd'
p13
Nsba(iGraphics.simplified_new
Scores
p14
(dp15
g10
I100
sg11
F0.8591854822313716
sg12
F1203487.4077
sg13
Nsba(iGraphics.simplified_new
Scores
p16
(dp17
g10
I100
sg11
F0.9581119138368215
sg12
F1201347.221
sg13
Nsba(iGraphics.simplified_new
Scores
p18
(dp19
g10
I100
sg11
F0.8076211951027193
sg12
F1147097.9497
sg13
Nsba(iGraphics.simplified_new
Scores
p20
(dp21
g10
I100
sg11
F0.766123260670242
sg12
F1238672.5368
sg13
Nsba(iGraphics.simplified_new
Scores
p22
(dp23
g10
I100
sg11
F0.7924543093759732
sg12
F1240996.2306
sg13
Nsba(iGraphics.simplified_new
Scores
p24
(dp25
g10
I100
sg11
F0.8732354095657937
sg12
F1240596.8314
sg13
Nsba(iGraphics.simplified_new
Scores
p26
(dp27
g10
I100
sg11
F0.7217396643736247
sg12
F1242309.3583
sg13
Nsba(iGraphics.simplified_new
Scores
p28
(dp29
g10
I100
sg11
F0.7679904240459652
sg12
F1265514.1956
sg13
Nsba(iGraphics.simplified_new
Scores
p30
(dp31
g10
I100
sg11
F0.7703050325433524
sg12
F1159741.5054
sg13
Nsba(iGraphics.simplified_new
Scores
p32
(dp33
g10
I100
sg11
F0.885191377822996
sg12
F1208578.7704
sg13
Nsba(iGraphics.simplified_new
Scores
p34
(dp35
g10
I100
sg11
F0.769339219958721
sg12
F1235825.2381
sg13
Nsba(iGraphics.simplified_new
Scores
p36
(dp37
g10
I100
sg11
F0.8545530150198863
sg12
F1216243.7057
sg13
Nsba(iGraphics.simplified_new
Scores
p38
(dp39
g10
I100
sg11
F0.8493078896688954
sg12
F1125806.8343
sg13
Nsba(iGraphics.simplified_new
Scores
p40
(dp41
g10
I100
sg11
F0.7684011144441301
sg12
F1235536.6626
sg13
Nsba(iGraphics.simplified_new
Scores
p42
(dp43
g10
I100
sg11
F0.9458313402481907
sg12
F1199528.6006
sg13
Nsba(iGraphics.simplified_new
Scores
p44
(dp45
g10
I100
sg11
F0.7760072845894005
sg12
F1098376.9001
sg13
Nsba(iGraphics.simplified_new
Scores
p46
(dp47
g10
I100
sg11
F0.8903783547802789
sg12
F1208716.567
sg13
Nsba(iGraphics.simplified_new
Scores
p48
(dp49
g10
I100
sg11
F0.8170826995273955
sg12
F1194224.0066
sg13
Nsba(iGraphics.simplified_new
Scores
p50
(dp51
g10
I100
sg11
F0.8302392407423167
sg12
F1180530.9408
sg13
NsbasS'algorithm'
p52
S'SPEA2'
p53
sbsS'SWAY5_8192'
p54
(iGraphics.simplified_new
SolutionHolder
p55
(dp56
g4
g5
sg6
(lp57
(iGraphics.simplified_new
Scores
p58
(dp59
g10
I54
sg11
F0.6532851569574845
sg12
F6757.753
sg13
Nsba(iGraphics.simplified_new
Scores
p60
(dp61
g10
I54
sg11
F0.6429850676493033
sg12
F6713.6338
sg13
Nsba(iGraphics.simplified_new
Scores
p62
(dp63
g10
I63
sg11
F0.6611430895364024
sg12
F6970.4045
sg13
Nsba(iGraphics.simplified_new
Scores
p64
(dp65
g10
I90
sg11
F0.7278287798343358
sg12
F7625.1234
sg13
Nsba(iGraphics.simplified_new
Scores
p66
(dp67
g10
I84
sg11
F0.6152519314243824
sg12
F7228.0933
sg13
Nsba(iGraphics.simplified_new
Scores
p68
(dp69
g10
I120
sg11
F0.6261915126390645
sg12
F7146.6082
sg13
Nsba(iGraphics.simplified_new
Scores
p70
(dp71
g10
I32
sg11
F0.6629360986260415
sg12
F7342.24
sg13
Nsba(iGraphics.simplified_new
Scores
p72
(dp73
g10
I64
sg11
F0.7407851044326609
sg12
F6359.1271
sg13
Nsba(iGraphics.simplified_new
Scores
p74
(dp75
g10
I27
sg11
F0.7961839459068226
sg12
F7741.8184
sg13
Nsba(iGraphics.simplified_new
Scores
p76
(dp77
g10
I63
sg11
F0.661278203562083
sg12
F8076.6435
sg13
Nsba(iGraphics.simplified_new
Scores
p78
(dp79
g10
I47
sg11
F0.6654164558446877
sg12
F5959.2123
sg13
Nsba(iGraphics.simplified_new
Scores
p80
(dp81
g10
I48
sg11
F0.7433371541115557
sg12
F6943.9193
sg13
Nsba(iGraphics.simplified_new
Scores
p82
(dp83
g10
I73
sg11
F0.6650667103190436
sg12
F6617.8222
sg13
Nsba(iGraphics.simplified_new
Scores
p84
(dp85
g10
I84
sg11
F0.698471174524468
sg12
F6578.5198
sg13
Nsba(iGraphics.simplified_new
Scores
p86
(dp87
g10
I72
sg11
F0.5843336293692988
sg12
F6036.0032
sg13
Nsba(iGraphics.simplified_new
Scores
p88
(dp89
g10
I63
sg11
F0.7082639721694821
sg12
F8259.8436
sg13
Nsba(iGraphics.simplified_new
Scores
p90
(dp91
g10
I48
sg11
F0.6996439539592408
sg12
F6770.1038
sg13
Nsba(iGraphics.simplified_new
Scores
p92
(dp93
g10
I48
sg11
F0.701705149788986
sg12
F6521.8628
sg13
Nsba(iGraphics.simplified_new
Scores
p94
(dp95
g10
I63
sg11
F0.7548912652005467
sg12
F7048.6411
sg13
Nsba(iGraphics.simplified_new
Scores
p96
(dp97
g10
I72
sg11
F0.7010958820011473
sg12
F7371.8317
sg13
Nsbasg52
S'SWAY5'
p98
sbsS'SWAY5_1024'
p99
(iGraphics.simplified_new
SolutionHolder
p100
(dp101
g4
g5
sg6
(lp102
(iGraphics.simplified_new
Scores
p103
(dp104
g10
I21
sg11
F0.8132385419622513
sg12
F927699.1195
sg13
Nsba(iGraphics.simplified_new
Scores
p105
(dp106
g10
I21
sg11
F0.8282630715964394
sg12
F959464.7177
sg13
Nsba(iGraphics.simplified_new
Scores
p107
(dp108
g10
I16
sg11
F0.7828814680192946
sg12
F966069.3144
sg13
Nsba(iGraphics.simplified_new
Scores
p109
(dp110
g10
I16
sg11
F0.8275046100600758
sg12
F789683.0512
sg13
Nsba(iGraphics.simplified_new
Scores
p111
(dp112
g10
I18
sg11
F0.6346441108067419
sg12
F828395.377
sg13
Nsba(iGraphics.simplified_new
Scores
p113
(dp114
g10
I18
sg11
F0.7017754495771379
sg12
F863200.9859
sg13
Nsba(iGraphics.simplified_new
Scores
p115
(dp116
g10
I16
sg11
F0.9160655558608641
sg12
F689491.6608
sg13
Nsba(iGraphics.simplified_new
Scores
p117
(dp118
g10
I28
sg11
F0.6929541594531687
sg12
F719027.3557
sg13
Nsba(iGraphics.simplified_new
Scores
p119
(dp120
g10
I24
sg11
F0.7927162582639059
sg12
F866714.3721
sg13
Nsba(iGraphics.simplified_new
Scores
p121
(dp122
g10
I24
sg11
F0.7944585308853648
sg12
F825086.5531
sg13
Nsba(iGraphics.simplified_new
Scores
p123
(dp124
g10
I16
sg11
F0.8472251404532674
sg12
F832978.2696
sg13
Nsba(iGraphics.simplified_new
Scores
p125
(dp126
g10
I28
sg11
F0.750002180770298
sg12
F867107.1325
sg13
Nsba(iGraphics.simplified_new
Scores
p127
(dp128
g10
I24
sg11
F0.7517792653148824
sg12
F838697.7414
sg13
Nsba(iGraphics.simplified_new
Scores
p129
(dp130
g10
I28
sg11
F0.749249779735159
sg12
F789683.0512
sg13
Nsba(iGraphics.simplified_new
Scores
p131
(dp132
g10
I31
sg11
F0.7431199490727041
sg12
F786823.3525
sg13
Nsba(iGraphics.simplified_new
Scores
p133
(dp134
g10
I16
sg11
F0.8167960386771915
sg12
F756674.0685
sg13
Nsba(iGraphics.simplified_new
Scores
p135
(dp136
g10
I27
sg11
F0.5698970010083613
sg12
F966069.3144
sg13
Nsba(iGraphics.simplified_new
Scores
p137
(dp138
g10
I24
sg11
F0.776509935124148
sg12
F764851.13
sg13
Nsba(iGraphics.simplified_new
Scores
p139
(dp140
g10
I28
sg11
F0.6410259850044364
sg12
F785752.5288
sg13
Nsba(iGraphics.simplified_new
Scores
p141
(dp142
g10
I21
sg11
F0.7977199247507633
sg12
F799696.3238
sg13
Nsbasg52
S'SWAY5'
p143
sbsS'SWAY5_2048'
p144
(iGraphics.simplified_new
SolutionHolder
p145
(dp146
g4
g5
sg6
(lp147
(iGraphics.simplified_new
Scores
p148
(dp149
g10
I32
sg11
F0.7568101816626184
sg12
F787344.2593
sg13
Nsba(iGraphics.simplified_new
Scores
p150
(dp151
g10
I21
sg11
F0.6832669905808202
sg12
F775130.5536
sg13
Nsba(iGraphics.simplified_new
Scores
p152
(dp153
g10
I31
sg11
F0.8284447722695149
sg12
F753246.0808
sg13
Nsba(iGraphics.simplified_new
Scores
p154
(dp155
g10
I32
sg11
F0.6880688919789696
sg12
F745867.9754
sg13
Nsba(iGraphics.simplified_new
Scores
p156
(dp157
g10
I24
sg11
F0.7318940516588471
sg12
F778906.415
sg13
Nsba(iGraphics.simplified_new
Scores
p158
(dp159
g10
I32
sg11
F0.7406724919044052
sg12
F783364.8369
sg13
Nsba(iGraphics.simplified_new
Scores
p160
(dp161
g10
I16
sg11
F0.8379729396184482
sg12
F679029.9587
sg13
Nsba(iGraphics.simplified_new
Scores
p162
(dp163
g10
I36
sg11
F0.7729331029132162
sg12
F690131.7649
sg13
Nsba(iGraphics.simplified_new
Scores
p164
(dp165
g10
I28
sg11
F0.7434654605903018
sg12
F731014.2758
sg13
Nsba(iGraphics.simplified_new
Scores
p166
(dp167
g10
I24
sg11
F0.7410482491986456
sg12
F623416.9917
sg13
Nsba(iGraphics.simplified_new
Scores
p168
(dp169
g10
I24
sg11
F0.767517173865468
sg12
F735192.5997
sg13
Nsba(iGraphics.simplified_new
Scores
p170
(dp171
g10
I31
sg11
F0.7416234181905093
sg12
F832233.7077
sg13
Nsba(iGraphics.simplified_new
Scores
p172
(dp173
g10
I32
sg11
F0.6720605008940767
sg12
F813414.924
sg13
Nsba(iGraphics.simplified_new
Scores
p174
(dp175
g10
I16
sg11
F0.7216342871828888
sg12
F743897.2619
sg13
Nsba(iGraphics.simplified_new
Scores
p176
(dp177
g10
I36
sg11
F0.6439509061104126
sg12
F746035.7624
sg13
Nsba(iGraphics.simplified_new
Scores
p178
(dp179
g10
I27
sg11
F0.7417732334278899
sg12
F834792.6672
sg13
Nsba(iGraphics.simplified_new
Scores
p180
(dp181
g10
I32
sg11
F0.7429844532391143
sg12
F731269.8725
sg13
Nsba(iGraphics.simplified_new
Scores
p182
(dp183
g10
I32
sg11
F0.7615343851220335
sg12
F683458.6566
sg13
Nsba(iGraphics.simplified_new
Scores
p184
(dp185
g10
I28
sg11
F0.7176849779884141
sg12
F802180.2467
sg13
Nsba(iGraphics.simplified_new
Scores
p186
(dp187
g10
I32
sg11
F0.7759009585846461
sg12
F787344.2593
sg13
Nsbasg52
S'SWAY5'
p188
sbsS'SWAY5_10000'
p189
(iGraphics.simplified_new
SolutionHolder
p190
(dp191
g4
g5
sg6
(lp192
(iGraphics.simplified_new
Scores
p193
(dp194
g10
I60
sg11
F0.6516634753976737
sg12
F7456.3932
sg13
Nsba(iGraphics.simplified_new
Scores
p195
(dp196
g10
I88
sg11
F0.6907839008510255
sg12
F7535.6761
sg13
Nsba(iGraphics.simplified_new
Scores
p197
(dp198
g10
I34
sg11
F0.6769851435634636
sg12
F5941.7416
sg13
Nsba(iGraphics.simplified_new
Scores
p199
(dp200
g10
I78
sg11
F0.726673390575646
sg12
F7886.3257
sg13
Nsba(iGraphics.simplified_new
Scores
p201
(dp202
g10
I78
sg11
F0.6356167808478304
sg12
F8685.505
sg13
Nsba(iGraphics.simplified_new
Scores
p203
(dp204
g10
I59
sg11
F0.6783140193080996
sg12
F6652.4221
sg13
Nsba(iGraphics.simplified_new
Scores
p205
(dp206
g10
I90
sg11
F0.6897039075514108
sg12
F6930.2083
sg13
Nsba(iGraphics.simplified_new
Scores
p207
(dp208
g10
I78
sg11
F0.7335540229300654
sg12
F6374.4766
sg13
Nsba(iGraphics.simplified_new
Scores
p209
(dp210
g10
I90
sg11
F0.6655543934386752
sg12
F7702.5469
sg13
Nsba(iGraphics.simplified_new
Scores
p211
(dp212
g10
I73
sg11
F0.6892412387252643
sg12
F8278.776
sg13
Nsba(iGraphics.simplified_new
Scores
p213
(dp214
g10
I95
sg11
F0.7056344563768122
sg12
F7985.8899
sg13
Nsba(iGraphics.simplified_new
Scores
p215
(dp216
g10
I78
sg11
F0.7352247139231459
sg12
F6718.5243
sg13
Nsba(iGraphics.simplified_new
Scores
p217
(dp218
g10
I77
sg11
F0.6995022930402496
sg12
F8181.676
sg13
Nsba(iGraphics.simplified_new
Scores
p219
(dp220
g10
I87
sg11
F0.7044419579977991
sg12
F7360.9339
sg13
Nsba(iGraphics.simplified_new
Scores
p221
(dp222
g10
I39
sg11
F0.7239757324763038
sg12
F6840.508
sg13
Nsba(iGraphics.simplified_new
Scores
p223
(dp224
g10
I88
sg11
F0.6751195186583989
sg12
F7315.6058
sg13
Nsba(iGraphics.simplified_new
Scores
p225
(dp226
g10
I88
sg11
F0.6967558610735368
sg12
F6713.6993
sg13
Nsba(iGraphics.simplified_new
Scores
p227
(dp228
g10
I78
sg11
F0.6648700471488906
sg12
F8379.2019
sg13
Nsba(iGraphics.simplified_new
Scores
p229
(dp230
g10
I59
sg11
F0.645077986415908
sg12
F6583.62
sg13
Nsba(iGraphics.simplified_new
Scores
p231
(dp232
g10
I78
sg11
F0.6499947991846454
sg12
F6842.9875
sg13
Nsbasg52
S'SWAY5'
p233
sbsS'SWAY5_4096'
p234
(iGraphics.simplified_new
SolutionHolder
p235
(dp236
g4
g5
sg6
(lp237
(iGraphics.simplified_new
Scores
p238
(dp239
g10
I16
sg11
F0.7756610648379376
sg12
F744202.646
sg13
Nsba(iGraphics.simplified_new
Scores
p240
(dp241
g10
I32
sg11
F0.7037762851947952
sg12
F847858.5268
sg13
Nsba(iGraphics.simplified_new
Scores
p242
(dp243
g10
I63
sg11
F0.7385725579798299
sg12
F809204.5724
sg13
Nsba(iGraphics.simplified_new
Scores
p244
(dp245
g10
I42
sg11
F0.6964733276520814
sg12
F727262.09
sg13
Nsba(iGraphics.simplified_new
Scores
p246
(dp247
g10
I48
sg11
F0.6572447209481814
sg12
F791746.6413
sg13
Nsba(iGraphics.simplified_new
Scores
p248
(dp249
g10
I53
sg11
F0.7326155761028559
sg12
F791840.5484
sg13
Nsba(iGraphics.simplified_new
Scores
p250
(dp251
g10
I63
sg11
F0.6273431451725078
sg12
F794732.0709
sg13
Nsba(iGraphics.simplified_new
Scores
p252
(dp253
g10
I32
sg11
F0.7709322245856173
sg12
F681211.4926
sg13
Nsba(iGraphics.simplified_new
Scores
p254
(dp255
g10
I42
sg11
F0.75712706333745
sg12
F729260.039
sg13
Nsba(iGraphics.simplified_new
Scores
p256
(dp257
g10
I24
sg11
F0.7421549892640723
sg12
F728166.2681
sg13
Nsba(iGraphics.simplified_new
Scores
p258
(dp259
g10
I48
sg11
F0.7306491603216219
sg12
F827813.7934
sg13
Nsba(iGraphics.simplified_new
Scores
p260
(dp261
g10
I31
sg11
F0.7847976001519436
sg12
F809759.0208
sg13
Nsba(iGraphics.simplified_new
Scores
p262
(dp263
g10
I48
sg11
F0.6406112256121511
sg12
F805672.9759
sg13
Nsba(iGraphics.simplified_new
Scores
p264
(dp265
g10
I56
sg11
F0.6471806618649489
sg12
F714301.2779
sg13
Nsba(iGraphics.simplified_new
Scores
p266
(dp267
g10
I18
sg11
F0.7593120667792003
sg12
F677353.1599
sg13
Nsba(iGraphics.simplified_new
Scores
p268
(dp269
g10
I48
sg11
F0.7235775777659954
sg12
F879449.7501
sg13
Nsba(iGraphics.simplified_new
Scores
p270
(dp271
g10
I48
sg11
F0.7229854865863037
sg12
F777331.4804
sg13
Nsba(iGraphics.simplified_new
Scores
p272
(dp273
g10
I48
sg11
F0.7633674466520495
sg12
F847897.4883
sg13
Nsba(iGraphics.simplified_new
Scores
p274
(dp275
g10
I31
sg11
F0.7351235660749886
sg12
F801433.9861
sg13
Nsba(iGraphics.simplified_new
Scores
p276
(dp277
g10
I46
sg11
F0.7532750758124591
sg12
F727794.6349
sg13
Nsbasg52
S'SWAY5'
p278
sbsS'SWAY5_512'
p279
(iGraphics.simplified_new
SolutionHolder
p280
(dp281
g4
g5
sg6
(lp282
(iGraphics.simplified_new
Scores
p283
(dp284
g10
I15
sg11
F0.8046090823329421
sg12
F700369.5403
sg13
Nsba(iGraphics.simplified_new
Scores
p285
(dp286
g10
I12
sg11
F0.9239921435506258
sg12
F799289.8047
sg13
Nsba(iGraphics.simplified_new
Scores
p287
(dp288
g10
I21
sg11
F0.8157680583316713
sg12
F791654.568
sg13
Nsba(iGraphics.simplified_new
Scores
p289
(dp290
g10
I12
sg11
F0.8120784965897452
sg12
F750976.8592
sg13
Nsba(iGraphics.simplified_new
Scores
p291
(dp292
g10
I16
sg11
F0.8511326161243872
sg12
F707826.6787
sg13
Nsba(iGraphics.simplified_new
Scores
p293
(dp294
g10
I18
sg11
F0.8350801317500263
sg12
F755288.3726
sg13
Nsba(iGraphics.simplified_new
Scores
p295
(dp296
g10
I16
sg11
F0.8445115511813787
sg12
F823506.1273
sg13
Nsba(iGraphics.simplified_new
Scores
p297
(dp298
g10
I12
sg11
F0.8767392706527779
sg12
F713832.8826
sg13
Nsba(iGraphics.simplified_new
Scores
p299
(dp300
g10
I16
sg11
F0.7428485062600697
sg12
F684690.9358
sg13
Nsba(iGraphics.simplified_new
Scores
p301
(dp302
g10
I16
sg11
F0.8106570196637678
sg12
F917719.0152
sg13
Nsba(iGraphics.simplified_new
Scores
p303
(dp304
g10
I12
sg11
F0.8847523861973232
sg12
F704101.5927
sg13
Nsba(iGraphics.simplified_new
Scores
p305
(dp306
g10
I16
sg11
F0.6833681945879846
sg12
F823940.4773
sg13
Nsba(iGraphics.simplified_new
Scores
p307
(dp308
g10
I16
sg11
F0.788229618101893
sg12
F684485.7615
sg13
Nsba(iGraphics.simplified_new
Scores
p309
(dp310
g10
I16
sg11
F0.8373529793397648
sg12
F776509.1503
sg13
Nsba(iGraphics.simplified_new
Scores
p311
(dp312
g10
I14
sg11
F0.9262095986776462
sg12
F696188.3496
sg13
Nsba(iGraphics.simplified_new
Scores
p313
(dp314
g10
I14
sg11
F0.8574861178172685
sg12
F833111.4856
sg13
Nsba(iGraphics.simplified_new
Scores
p315
(dp316
g10
I12
sg11
F0.6957928274745767
sg12
F824331.8788
sg13
Nsba(iGraphics.simplified_new
Scores
p317
(dp318
g10
I18
sg11
F0.7744182949256582
sg12
F747820.3426
sg13
Nsba(iGraphics.simplified_new
Scores
p319
(dp320
g10
I16
sg11
F0.8744033172086346
sg12
F824432.4234
sg13
Nsba(iGraphics.simplified_new
Scores
p321
(dp322
g10
I12
sg11
F0.8763643079027623
sg12
F825432.4689
sg13
Nsbasg52
S'SWAY5'
p323
sbsS'SWAY5_100'
p324
(iGraphics.simplified_new
SolutionHolder
p325
(dp326
g4
g5
sg6
(lp327
(iGraphics.simplified_new
Scores
p328
(dp329
g10
I6
sg11
F0.8433162798144788
sg12
F712160.3772
sg13
Nsba(iGraphics.simplified_new
Scores
p330
(dp331
g10
I6
sg11
F0.9312088375918057
sg12
F638114.4116
sg13
Nsba(iGraphics.simplified_new
Scores
p332
(dp333
g10
I7
sg11
F0.8529418715221273
sg12
F817177.4171
sg13
Nsba(iGraphics.simplified_new
Scores
p334
(dp335
g10
I9
sg11
F0.7699512172017223
sg12
F717093.0675
sg13
Nsba(iGraphics.simplified_new
Scores
p336
(dp337
g10
I7
sg11
F0.916326099669244
sg12
F587677.2344
sg13
Nsba(iGraphics.simplified_new
Scores
p338
(dp339
g10
I6
sg11
F0.9095498799910036
sg12
F717093.0675
sg13
Nsba(iGraphics.simplified_new
Scores
p340
(dp341
g10
I7
sg11
F0.8651245791792513
sg12
F674892.7331
sg13
Nsba(iGraphics.simplified_new
Scores
p342
(dp343
g10
I8
sg11
F0.8774251662463008
sg12
F783627.4669
sg13
Nsba(iGraphics.simplified_new
Scores
p344
(dp345
g10
I6
sg11
F0.8698517256018643
sg12
F638306.8939
sg13
Nsba(iGraphics.simplified_new
Scores
p346
(dp347
g10
I6
sg11
F0.9152845091699259
sg12
F638306.8939
sg13
Nsba(iGraphics.simplified_new
Scores
p348
(dp349
g10
I6
sg11
F0.9284354254431603
sg12
F783412.4584
sg13
Nsba(iGraphics.simplified_new
Scores
p350
(dp351
g10
I6
sg11
F0.9699873232512776
sg12
F756127.0293
sg13
Nsba(iGraphics.simplified_new
Scores
p352
(dp353
g10
I6
sg11
F0.6304431705261921
sg12
F717093.0675
sg13
Nsba(iGraphics.simplified_new
Scores
p354
(dp355
g10
I6
sg11
F0.8696043229903684
sg12
F717093.0675
sg13
Nsba(iGraphics.simplified_new
Scores
p356
(dp357
g10
I6
sg11
F0.90221859604732
sg12
F712160.3772
sg13
Nsba(iGraphics.simplified_new
Scores
p358
(dp359
g10
I6
sg11
F0.8846466216459778
sg12
F675471.4815
sg13
Nsba(iGraphics.simplified_new
Scores
p360
(dp361
g10
I6
sg11
F0.9436289428536939
sg12
F712160.3772
sg13
Nsba(iGraphics.simplified_new
Scores
p362
(dp363
g10
I6
sg11
F0.9123318610184901
sg12
F655489.1625
sg13
Nsba(iGraphics.simplified_new
Scores
p364
(dp365
g10
I6
sg11
F0.9137321847414568
sg12
F701563.4056
sg13
Nsba(iGraphics.simplified_new
Scores
p366
(dp367
g10
I6
sg11
F0.8995715815730545
sg12
F675471.4815
sg13
Nsbasg52
S'SWAY5'
p368
sbsS'NSGAII_100'
p369
(iGraphics.simplified_new
SolutionHolder
p370
(dp371
g4
g5
sg6
(lp372
(iGraphics.simplified_new
Scores
p373
(dp374
g10
I100
sg11
F0.8738143466405889
sg12
F1258117.4659
sg13
Nsba(iGraphics.simplified_new
Scores
p375
(dp376
g10
I100
sg11
F0.8619402449396116
sg12
F1175830.7212
sg13
Nsba(iGraphics.simplified_new
Scores
p377
(dp378
g10
I100
sg11
F0.8474940408166031
sg12
F1182652.8958
sg13
Nsba(iGraphics.simplified_new
Scores
p379
(dp380
g10
I100
sg11
F0.8790624953544888
sg12
F1184440.9731
sg13
Nsba(iGraphics.simplified_new
Scores
p381
(dp382
g10
I100
sg11
F0.7972359773563956
sg12
F1179378.3825
sg13
Nsba(iGraphics.simplified_new
Scores
p383
(dp384
g10
I100
sg11
F0.8746143702134833
sg12
F1204382.8513
sg13
Nsba(iGraphics.simplified_new
Scores
p385
(dp386
g10
I100
sg11
F0.8287367998918691
sg12
F1199988.4909
sg13
Nsba(iGraphics.simplified_new
Scores
p387
(dp388
g10
I100
sg11
F0.8233424829532484
sg12
F1321908.8365
sg13
Nsba(iGraphics.simplified_new
Scores
p389
(dp390
g10
I100
sg11
F0.8438013023013805
sg12
F1147113.6029
sg13
Nsba(iGraphics.simplified_new
Scores
p391
(dp392
g10
I100
sg11
F0.8157996555928912
sg12
F1253715.2829
sg13
Nsba(iGraphics.simplified_new
Scores
p393
(dp394
g10
I100
sg11
F0.8512049969723573
sg12
F1244697.7368
sg13
Nsba(iGraphics.simplified_new
Scores
p395
(dp396
g10
I100
sg11
F0.8785584751660723
sg12
F1173605.7283
sg13
Nsba(iGraphics.simplified_new
Scores
p397
(dp398
g10
I100
sg11
F0.9566370487125978
sg12
F1180323.117
sg13
Nsba(iGraphics.simplified_new
Scores
p399
(dp400
g10
I100
sg11
F0.9121263238799574
sg12
F1245142.6213
sg13
Nsba(iGraphics.simplified_new
Scores
p401
(dp402
g10
I100
sg11
F0.8893455608625862
sg12
F1174543.9294
sg13
Nsba(iGraphics.simplified_new
Scores
p403
(dp404
g10
I100
sg11
F0.8144503909254353
sg12
F1228030.0753
sg13
Nsba(iGraphics.simplified_new
Scores
p405
(dp406
g10
I100
sg11
F0.887594474530716
sg12
F1136840.0946
sg13
Nsba(iGraphics.simplified_new
Scores
p407
(dp408
g10
I100
sg11
F0.9601217293863018
sg12
F1242241.5187
sg13
Nsba(iGraphics.simplified_new
Scores
p409
(dp410
g10
I100
sg11
F0.8553230200934389
sg12
F1149880.7421
sg13
Nsba(iGraphics.simplified_new
Scores
p411
(dp412
g10
I100
sg11
F0.8618565688197902
sg12
F1232730.0448
sg13
Nsbasg52
S'NSGAII'
p413
sbs.