(dp0
S'SPEA2_100'
p1
(iGraphics.simplified_new
SolutionHolder
p2
(dp3
S'problem'
p4
S'MONRP_50_4_5_4_110'
p5
sS'repeats'
p6
(lp7
(iGraphics.simplified_new
Scores
p8
(dp9
S'pfs'
p10
I100
sS'spread'
p11
F0.751330335970577
sS'hv'
p12
F1141742.5409
sS'igd'
p13
Nsba(iGraphics.simplified_new
Scores
p14
(dp15
g10
I100
sg11
F0.8974743745217736
sg12
F1286986.1579
sg13
Nsba(iGraphics.simplified_new
Scores
p16
(dp17
g10
I100
sg11
F0.7887442144433436
sg12
F1261092.9834
sg13
Nsba(iGraphics.simplified_new
Scores
p18
(dp19
g10
I100
sg11
F0.8079580961055959
sg12
F1257393.727
sg13
Nsba(iGraphics.simplified_new
Scores
p20
(dp21
g10
I100
sg11
F0.7379092410974505
sg12
F1178640.3049
sg13
Nsba(iGraphics.simplified_new
Scores
p22
(dp23
g10
I100
sg11
F0.7631273354919592
sg12
F1156788.4592
sg13
Nsba(iGraphics.simplified_new
Scores
p24
(dp25
g10
I100
sg11
F0.8431927941725653
sg12
F1248607.8117
sg13
Nsba(iGraphics.simplified_new
Scores
p26
(dp27
g10
I100
sg11
F0.7958177114109596
sg12
F1209375.0862
sg13
Nsba(iGraphics.simplified_new
Scores
p28
(dp29
g10
I100
sg11
F0.8172938543526728
sg12
F1211721.252
sg13
Nsba(iGraphics.simplified_new
Scores
p30
(dp31
g10
I100
sg11
F0.8058427429793944
sg12
F1100907.5399
sg13
Nsba(iGraphics.simplified_new
Scores
p32
(dp33
g10
I100
sg11
F0.7790670385802221
sg12
F1259698.2924
sg13
Nsba(iGraphics.simplified_new
Scores
p34
(dp35
g10
I100
sg11
F0.8471332289518205
sg12
F1207965.8442
sg13
Nsba(iGraphics.simplified_new
Scores
p36
(dp37
g10
I100
sg11
F0.881701097215688
sg12
F1147680.7001
sg13
Nsba(iGraphics.simplified_new
Scores
p38
(dp39
g10
I100
sg11
F0.8492139657479028
sg12
F1188830.0247
sg13
Nsba(iGraphics.simplified_new
Scores
p40
(dp41
g10
I100
sg11
F0.8759791001744137
sg12
F1139684.392
sg13
Nsba(iGraphics.simplified_new
Scores
p42
(dp43
g10
I100
sg11
F0.8341352873465665
sg12
F1158504.4319
sg13
Nsba(iGraphics.simplified_new
Scores
p44
(dp45
g10
I100
sg11
F0.8635327470377478
sg12
F1176378.6991
sg13
Nsba(iGraphics.simplified_new
Scores
p46
(dp47
g10
I100
sg11
F0.7381694792594579
sg12
F1138194.2267
sg13
Nsba(iGraphics.simplified_new
Scores
p48
(dp49
g10
I100
sg11
F0.8386502809805596
sg12
F1193996.0731
sg13
Nsba(iGraphics.simplified_new
Scores
p50
(dp51
g10
I100
sg11
F0.816754728480971
sg12
F1111952.833
sg13
NsbasS'algorithm'
p52
S'SPEA2'
p53
sbsS'SWAY5_8192'
p54
(iGraphics.simplified_new
SolutionHolder
p55
(dp56
g4
g5
sg6
(lp57
(iGraphics.simplified_new
Scores
p58
(dp59
g10
I64
sg11
F0.7197629830747643
sg12
F7855.0014
sg13
Nsba(iGraphics.simplified_new
Scores
p60
(dp61
g10
I69
sg11
F0.689824121414765
sg12
F7398.7568
sg13
Nsba(iGraphics.simplified_new
Scores
p62
(dp63
g10
I32
sg11
F0.706412121244709
sg12
F7329.2071
sg13
Nsba(iGraphics.simplified_new
Scores
p64
(dp65
g10
I48
sg11
F0.6978014361061815
sg12
F6537.0426
sg13
Nsba(iGraphics.simplified_new
Scores
p66
(dp67
g10
I63
sg11
F0.5741384685319755
sg12
F7080.098
sg13
Nsba(iGraphics.simplified_new
Scores
p68
(dp69
g10
I61
sg11
F0.6121906827786966
sg12
F7139.5235
sg13
Nsba(iGraphics.simplified_new
Scores
p70
(dp71
g10
I63
sg11
F0.6976957749603334
sg12
F7401.0005
sg13
Nsba(iGraphics.simplified_new
Scores
p72
(dp73
g10
I63
sg11
F0.6500636848613106
sg12
F7603.9304
sg13
Nsba(iGraphics.simplified_new
Scores
p74
(dp75
g10
I72
sg11
F0.6548438808443129
sg12
F6841.9719
sg13
Nsba(iGraphics.simplified_new
Scores
p76
(dp77
g10
I85
sg11
F0.6011773458190995
sg12
F8242.5446
sg13
Nsba(iGraphics.simplified_new
Scores
p78
(dp79
g10
I56
sg11
F0.6479979930932583
sg12
F7730.7978
sg13
Nsba(iGraphics.simplified_new
Scores
p80
(dp81
g10
I90
sg11
F0.6719688810138402
sg12
F7329.4563
sg13
Nsba(iGraphics.simplified_new
Scores
p82
(dp83
g10
I72
sg11
F0.61444337939444
sg12
F7940.43
sg13
Nsba(iGraphics.simplified_new
Scores
p84
(dp85
g10
I63
sg11
F0.5840243402440883
sg12
F7444.6972
sg13
Nsba(iGraphics.simplified_new
Scores
p86
(dp87
g10
I64
sg11
F0.5936380701365663
sg12
F7128.0399
sg13
Nsba(iGraphics.simplified_new
Scores
p88
(dp89
g10
I81
sg11
F0.6669243480556157
sg12
F7187.3316
sg13
Nsba(iGraphics.simplified_new
Scores
p90
(dp91
g10
I24
sg11
F0.6980468446754249
sg12
F7387.1793
sg13
Nsba(iGraphics.simplified_new
Scores
p92
(dp93
g10
I49
sg11
F0.6521753965027256
sg12
F7941.3939
sg13
Nsba(iGraphics.simplified_new
Scores
p94
(dp95
g10
I64
sg11
F0.552171930275921
sg12
F6814.4706
sg13
Nsba(iGraphics.simplified_new
Scores
p96
(dp97
g10
I48
sg11
F0.6532212539471276
sg12
F7128.8112
sg13
Nsbasg52
S'SWAY5'
p98
sbsS'SWAY5_1024'
p99
(iGraphics.simplified_new
SolutionHolder
p100
(dp101
g4
g5
sg6
(lp102
(iGraphics.simplified_new
Scores
p103
(dp104
g10
I18
sg11
F0.6741670515515816
sg12
F942587.8103
sg13
Nsba(iGraphics.simplified_new
Scores
p105
(dp106
g10
I16
sg11
F0.727891345490615
sg12
F967989.5291
sg13
Nsba(iGraphics.simplified_new
Scores
p107
(dp108
g10
I31
sg11
F0.7290065214963625
sg12
F870473.33
sg13
Nsba(iGraphics.simplified_new
Scores
p109
(dp110
g10
I31
sg11
F0.6591754702055896
sg12
F859236.7207
sg13
Nsba(iGraphics.simplified_new
Scores
p111
(dp112
g10
I28
sg11
F0.7602913256972101
sg12
F731083.6395
sg13
Nsba(iGraphics.simplified_new
Scores
p113
(dp114
g10
I31
sg11
F0.7557085833783678
sg12
F954344.4834
sg13
Nsba(iGraphics.simplified_new
Scores
p115
(dp116
g10
I27
sg11
F0.7194401758254632
sg12
F880134.2091
sg13
Nsba(iGraphics.simplified_new
Scores
p117
(dp118
g10
I24
sg11
F0.633348855141747
sg12
F1019897.9721
sg13
Nsba(iGraphics.simplified_new
Scores
p119
(dp120
g10
I28
sg11
F0.7403709834822811
sg12
F917505.5217
sg13
Nsba(iGraphics.simplified_new
Scores
p121
(dp122
g10
I16
sg11
F0.7269122506532133
sg12
F946966.2558
sg13
Nsba(iGraphics.simplified_new
Scores
p123
(dp124
g10
I24
sg11
F0.8082072580004069
sg12
F917411.7103
sg13
Nsba(iGraphics.simplified_new
Scores
p125
(dp126
g10
I18
sg11
F0.709255179783429
sg12
F967989.5291
sg13
Nsba(iGraphics.simplified_new
Scores
p127
(dp128
g10
I16
sg11
F0.8071323659886822
sg12
F858832.2001
sg13
Nsba(iGraphics.simplified_new
Scores
p129
(dp130
g10
I27
sg11
F0.672558298979719
sg12
F892589.6274
sg13
Nsba(iGraphics.simplified_new
Scores
p131
(dp132
g10
I21
sg11
F0.8532652867559268
sg12
F894450.4347
sg13
Nsba(iGraphics.simplified_new
Scores
p133
(dp134
g10
I16
sg11
F0.8137404376866716
sg12
F856897.6832
sg13
Nsba(iGraphics.simplified_new
Scores
p135
(dp136
g10
I16
sg11
F0.8210852846124501
sg12
F854291.1134
sg13
Nsba(iGraphics.simplified_new
Scores
p137
(dp138
g10
I21
sg11
F0.7861708196040629
sg12
F916752.7462
sg13
Nsba(iGraphics.simplified_new
Scores
p139
(dp140
g10
I28
sg11
F0.6853972035374011
sg12
F859211.4372
sg13
Nsba(iGraphics.simplified_new
Scores
p141
(dp142
g10
I16
sg11
F0.6943090062810291
sg12
F1038026.1879
sg13
Nsbasg52
S'SWAY5'
p143
sbsS'SWAY5_2048'
p144
(iGraphics.simplified_new
SolutionHolder
p145
(dp146
g4
g5
sg6
(lp147
(iGraphics.simplified_new
Scores
p148
(dp149
g10
I28
sg11
F0.7294201890993748
sg12
F761996.1741
sg13
Nsba(iGraphics.simplified_new
Scores
p150
(dp151
g10
I32
sg11
F0.7851748353645127
sg12
F767411.0826
sg13
Nsba(iGraphics.simplified_new
Scores
p152
(dp153
g10
I32
sg11
F0.7580559560744466
sg12
F826527.3982
sg13
Nsba(iGraphics.simplified_new
Scores
p154
(dp155
g10
I42
sg11
F0.7155273904642423
sg12
F923709.7198
sg13
Nsba(iGraphics.simplified_new
Scores
p156
(dp157
g10
I39
sg11
F0.7132011661812064
sg12
F850569.5161
sg13
Nsba(iGraphics.simplified_new
Scores
p158
(dp159
g10
I49
sg11
F0.6125837922692503
sg12
F874519.7323
sg13
Nsba(iGraphics.simplified_new
Scores
p160
(dp161
g10
I24
sg11
F0.852406972414028
sg12
F882033.6201
sg13
Nsba(iGraphics.simplified_new
Scores
p162
(dp163
g10
I28
sg11
F0.8273393796890812
sg12
F755252.6226
sg13
Nsba(iGraphics.simplified_new
Scores
p164
(dp165
g10
I24
sg11
F0.7985948658971844
sg12
F923709.7198
sg13
Nsba(iGraphics.simplified_new
Scores
p166
(dp167
g10
I24
sg11
F0.7698351256326641
sg12
F881812.5142
sg13
Nsba(iGraphics.simplified_new
Scores
p168
(dp169
g10
I24
sg11
F0.7714547092640186
sg12
F831146.3176
sg13
Nsba(iGraphics.simplified_new
Scores
p170
(dp171
g10
I16
sg11
F0.8366502886829641
sg12
F817120.3267
sg13
Nsba(iGraphics.simplified_new
Scores
p172
(dp173
g10
I27
sg11
F0.7772211753849659
sg12
F783547.0179
sg13
Nsba(iGraphics.simplified_new
Scores
p174
(dp175
g10
I16
sg11
F0.748637574411675
sg12
F826123.5874
sg13
Nsba(iGraphics.simplified_new
Scores
p176
(dp177
g10
I24
sg11
F0.7810428255871843
sg12
F746055.5214
sg13
Nsba(iGraphics.simplified_new
Scores
p178
(dp179
g10
I30
sg11
F0.7766502326454064
sg12
F728679.4463
sg13
Nsba(iGraphics.simplified_new
Scores
p180
(dp181
g10
I24
sg11
F0.7567044607355401
sg12
F826011.8381
sg13
Nsba(iGraphics.simplified_new
Scores
p182
(dp183
g10
I36
sg11
F0.5756065645538546
sg12
F873145.1725
sg13
Nsba(iGraphics.simplified_new
Scores
p184
(dp185
g10
I27
sg11
F0.7194718723873511
sg12
F751119.3524
sg13
Nsba(iGraphics.simplified_new
Scores
p186
(dp187
g10
I30
sg11
F0.7476114140455151
sg12
F881812.5142
sg13
Nsbasg52
S'SWAY5'
p188
sbsS'SWAY5_10000'
p189
(iGraphics.simplified_new
SolutionHolder
p190
(dp191
g4
g5
sg6
(lp192
(iGraphics.simplified_new
Scores
p193
(dp194
g10
I94
sg11
F0.6603060545365166
sg12
F9976.6306
sg13
Nsba(iGraphics.simplified_new
Scores
p195
(dp196
g10
I68
sg11
F0.6866012019229834
sg12
F9083.8443
sg13
Nsba(iGraphics.simplified_new
Scores
p197
(dp198
g10
I96
sg11
F0.61045200878088
sg12
F10832.5385
sg13
Nsba(iGraphics.simplified_new
Scores
p199
(dp200
g10
I58
sg11
F0.6940767737658619
sg12
F9028.1866
sg13
Nsba(iGraphics.simplified_new
Scores
p201
(dp202
g10
I90
sg11
F0.6498406746206513
sg12
F9707.1017
sg13
Nsba(iGraphics.simplified_new
Scores
p203
(dp204
g10
I37
sg11
F0.7711938860216281
sg12
F10208.8662
sg13
Nsba(iGraphics.simplified_new
Scores
p205
(dp206
g10
I39
sg11
F0.7612212025119992
sg12
F9355.3137
sg13
Nsba(iGraphics.simplified_new
Scores
p207
(dp208
g10
I39
sg11
F0.8151385651464144
sg12
F8061.5792
sg13
Nsba(iGraphics.simplified_new
Scores
p209
(dp210
g10
I33
sg11
F0.721223515715436
sg12
F8147.4381
sg13
Nsba(iGraphics.simplified_new
Scores
p211
(dp212
g10
I68
sg11
F0.640349327504213
sg12
F9736.8271
sg13
Nsba(iGraphics.simplified_new
Scores
p213
(dp214
g10
I29
sg11
F0.675375539691051
sg12
F8764.3036
sg13
Nsba(iGraphics.simplified_new
Scores
p215
(dp216
g10
I55
sg11
F0.630070995093752
sg12
F9823.2549
sg13
Nsba(iGraphics.simplified_new
Scores
p217
(dp218
g10
I68
sg11
F0.7531388308951261
sg12
F8768.7504
sg13
Nsba(iGraphics.simplified_new
Scores
p219
(dp220
g10
I83
sg11
F0.6658921857168011
sg12
F9485.0862
sg13
Nsba(iGraphics.simplified_new
Scores
p221
(dp222
g10
I54
sg11
F0.6466280381044537
sg12
F9493.6832
sg13
Nsba(iGraphics.simplified_new
Scores
p223
(dp224
g10
I68
sg11
F0.6374249166905595
sg12
F9158.9384
sg13
Nsba(iGraphics.simplified_new
Scores
p225
(dp226
g10
I85
sg11
F0.7269958940036692
sg12
F9458.1532
sg13
Nsba(iGraphics.simplified_new
Scores
p227
(dp228
g10
I58
sg11
F0.6037328902250573
sg12
F10358.7381
sg13
Nsba(iGraphics.simplified_new
Scores
p229
(dp230
g10
I33
sg11
F0.6241745079396527
sg12
F10761.5679
sg13
Nsba(iGraphics.simplified_new
Scores
p231
(dp232
g10
I77
sg11
F0.7150805713161293
sg12
F9677.9263
sg13
Nsbasg52
S'SWAY5'
p233
sbsS'SWAY5_4096'
p234
(iGraphics.simplified_new
SolutionHolder
p235
(dp236
g4
g5
sg6
(lp237
(iGraphics.simplified_new
Scores
p238
(dp239
g10
I42
sg11
F0.7010786012047402
sg12
F897557.0117
sg13
Nsba(iGraphics.simplified_new
Scores
p240
(dp241
g10
I63
sg11
F0.6735987982720749
sg12
F660317.5071
sg13
Nsba(iGraphics.simplified_new
Scores
p242
(dp243
g10
I63
sg11
F0.6257169122101917
sg12
F897557.0117
sg13
Nsba(iGraphics.simplified_new
Scores
p244
(dp245
g10
I56
sg11
F0.6310712590383764
sg12
F799043.7806
sg13
Nsba(iGraphics.simplified_new
Scores
p246
(dp247
g10
I32
sg11
F0.6849407805900372
sg12
F901636.4341
sg13
Nsba(iGraphics.simplified_new
Scores
p248
(dp249
g10
I32
sg11
F0.6693503311542683
sg12
F755140.2369
sg13
Nsba(iGraphics.simplified_new
Scores
p250
(dp251
g10
I16
sg11
F0.8093793200487058
sg12
F733279.7719
sg13
Nsba(iGraphics.simplified_new
Scores
p252
(dp253
g10
I42
sg11
F0.6059675818048103
sg12
F740351.0004
sg13
Nsba(iGraphics.simplified_new
Scores
p254
(dp255
g10
I39
sg11
F0.7168500082481533
sg12
F901270.1232
sg13
Nsba(iGraphics.simplified_new
Scores
p256
(dp257
g10
I33
sg11
F0.764077518933265
sg12
F696590.5344
sg13
Nsba(iGraphics.simplified_new
Scores
p258
(dp259
g10
I26
sg11
F0.6980406792693654
sg12
F703790.1812
sg13
Nsba(iGraphics.simplified_new
Scores
p260
(dp261
g10
I49
sg11
F0.7093231906797708
sg12
F857674.6313
sg13
Nsba(iGraphics.simplified_new
Scores
p262
(dp263
g10
I56
sg11
F0.674880801880248
sg12
F726534.6419
sg13
Nsba(iGraphics.simplified_new
Scores
p264
(dp265
g10
I40
sg11
F0.6731051436514017
sg12
F817429.2619
sg13
Nsba(iGraphics.simplified_new
Scores
p266
(dp267
g10
I52
sg11
F0.5539301997526451
sg12
F817429.2619
sg13
Nsba(iGraphics.simplified_new
Scores
p268
(dp269
g10
I48
sg11
F0.7735451081200913
sg12
F784060.3834
sg13
Nsba(iGraphics.simplified_new
Scores
p270
(dp271
g10
I49
sg11
F0.7177265268177451
sg12
F827563.1931
sg13
Nsba(iGraphics.simplified_new
Scores
p272
(dp273
g10
I48
sg11
F0.7288663279635051
sg12
F900779.6505
sg13
Nsba(iGraphics.simplified_new
Scores
p274
(dp275
g10
I18
sg11
F0.8292754454469609
sg12
F688355.5843
sg13
Nsba(iGraphics.simplified_new
Scores
p276
(dp277
g10
I31
sg11
F0.7653632524338614
sg12
F663179.5565
sg13
Nsbasg52
S'SWAY5'
p278
sbsS'SWAY5_512'
p279
(iGraphics.simplified_new
SolutionHolder
p280
(dp281
g4
g5
sg6
(lp282
(iGraphics.simplified_new
Scores
p283
(dp284
g10
I16
sg11
F0.7041915185665393
sg12
F853446.6898
sg13
Nsba(iGraphics.simplified_new
Scores
p285
(dp286
g10
I12
sg11
F0.721654083825357
sg12
F860382.3229
sg13
Nsba(iGraphics.simplified_new
Scores
p287
(dp288
g10
I16
sg11
F0.7184012252085019
sg12
F803602.1209
sg13
Nsba(iGraphics.simplified_new
Scores
p289
(dp290
g10
I14
sg11
F0.743413340351389
sg12
F861386.7974
sg13
Nsba(iGraphics.simplified_new
Scores
p291
(dp292
g10
I12
sg11
F0.7237759528002908
sg12
F754497.6202
sg13
Nsba(iGraphics.simplified_new
Scores
p293
(dp294
g10
I12
sg11
F0.8307825866147781
sg12
F739418.4583
sg13
Nsba(iGraphics.simplified_new
Scores
p295
(dp296
g10
I12
sg11
F0.8574605106077893
sg12
F678497.5768
sg13
Nsba(iGraphics.simplified_new
Scores
p297
(dp298
g10
I12
sg11
F0.8234695982509319
sg12
F726279.5895
sg13
Nsba(iGraphics.simplified_new
Scores
p299
(dp300
g10
I12
sg11
F0.8948722888922728
sg12
F836938.3507
sg13
Nsba(iGraphics.simplified_new
Scores
p301
(dp302
g10
I21
sg11
F0.8250556163830873
sg12
F852773.9934
sg13
Nsba(iGraphics.simplified_new
Scores
p303
(dp304
g10
I16
sg11
F0.8493485210889712
sg12
F785168.5329
sg13
Nsba(iGraphics.simplified_new
Scores
p305
(dp306
g10
I16
sg11
F0.8733551733890421
sg12
F836742.1954
sg13
Nsba(iGraphics.simplified_new
Scores
p307
(dp308
g10
I16
sg11
F0.8946242041681884
sg12
F750770.2777
sg13
Nsba(iGraphics.simplified_new
Scores
p309
(dp310
g10
I16
sg11
F0.8009058407109259
sg12
F782908.9715
sg13
Nsba(iGraphics.simplified_new
Scores
p311
(dp312
g10
I16
sg11
F0.8224439210992996
sg12
F923478.8867
sg13
Nsba(iGraphics.simplified_new
Scores
p313
(dp314
g10
I13
sg11
F0.700316843497763
sg12
F777397.9943
sg13
Nsba(iGraphics.simplified_new
Scores
p315
(dp316
g10
I18
sg11
F0.8614580027479907
sg12
F723348.9728
sg13
Nsba(iGraphics.simplified_new
Scores
p317
(dp318
g10
I16
sg11
F0.9066003406430869
sg12
F740699.0055
sg13
Nsba(iGraphics.simplified_new
Scores
p319
(dp320
g10
I16
sg11
F0.7002507981547522
sg12
F776454.977
sg13
Nsba(iGraphics.simplified_new
Scores
p321
(dp322
g10
I21
sg11
F0.8394333468052294
sg12
F923478.8867
sg13
Nsbasg52
S'SWAY5'
p323
sbsS'SWAY5_100'
p324
(iGraphics.simplified_new
SolutionHolder
p325
(dp326
g4
g5
sg6
(lp327
(iGraphics.simplified_new
Scores
p328
(dp329
g10
I7
sg11
F0.9532861801016885
sg12
F693475.1945
sg13
Nsba(iGraphics.simplified_new
Scores
p330
(dp331
g10
I6
sg11
F0.7730612167526695
sg12
F777601.1021
sg13
Nsba(iGraphics.simplified_new
Scores
p332
(dp333
g10
I6
sg11
F0.9484700621174653
sg12
F653773.4408
sg13
Nsba(iGraphics.simplified_new
Scores
p334
(dp335
g10
I6
sg11
F0.8406103223164022
sg12
F764250.8932
sg13
Nsba(iGraphics.simplified_new
Scores
p336
(dp337
g10
I6
sg11
F0.9266488948201006
sg12
F559827.0906
sg13
Nsba(iGraphics.simplified_new
Scores
p338
(dp339
g10
I7
sg11
F0.8689035328402083
sg12
F693475.1945
sg13
Nsba(iGraphics.simplified_new
Scores
p340
(dp341
g10
I6
sg11
F0.9112737349330283
sg12
F642310.4798
sg13
Nsba(iGraphics.simplified_new
Scores
p342
(dp343
g10
I5
sg11
F0.9627730093172698
sg12
F764714.221
sg13
Nsba(iGraphics.simplified_new
Scores
p344
(dp345
g10
I6
sg11
F0.9151604092012304
sg12
F702090.4873
sg13
Nsba(iGraphics.simplified_new
Scores
p346
(dp347
g10
I9
sg11
F0.898475660441123
sg12
F777601.1021
sg13
Nsba(iGraphics.simplified_new
Scores
p348
(dp349
g10
I6
sg11
F0.9550176232636769
sg12
F762643.2549
sg13
Nsba(iGraphics.simplified_new
Scores
p350
(dp351
g10
I6
sg11
F0.9003636677666631
sg12
F702065.0497
sg13
Nsba(iGraphics.simplified_new
Scores
p352
(dp353
g10
I6
sg11
F0.9495132851155911
sg12
F675090.9081
sg13
Nsba(iGraphics.simplified_new
Scores
p354
(dp355
g10
I8
sg11
F0.7846129636628454
sg12
F764826.493
sg13
Nsba(iGraphics.simplified_new
Scores
p356
(dp357
g10
I9
sg11
F0.9389227718004421
sg12
F742480.3062
sg13
Nsba(iGraphics.simplified_new
Scores
p358
(dp359
g10
I6
sg11
F0.9847194207105857
sg12
F777601.1021
sg13
Nsba(iGraphics.simplified_new
Scores
p360
(dp361
g10
I7
sg11
F0.8862115166323058
sg12
F742480.3062
sg13
Nsba(iGraphics.simplified_new
Scores
p362
(dp363
g10
I5
sg11
F0.824024422830259
sg12
F742480.3062
sg13
Nsba(iGraphics.simplified_new
Scores
p364
(dp365
g10
I7
sg11
F0.9395684399639339
sg12
F620409.8331
sg13
Nsba(iGraphics.simplified_new
Scores
p366
(dp367
g10
I7
sg11
F0.7760280228683607
sg12
F702065.0497
sg13
Nsbasg52
S'SWAY5'
p368
sbsS'NSGAII_100'
p369
(iGraphics.simplified_new
SolutionHolder
p370
(dp371
g4
g5
sg6
(lp372
(iGraphics.simplified_new
Scores
p373
(dp374
g10
I100
sg11
F0.7909780816584215
sg12
F1147375.9515
sg13
Nsba(iGraphics.simplified_new
Scores
p375
(dp376
g10
I100
sg11
F0.9153823440981183
sg12
F1124928.7857
sg13
Nsba(iGraphics.simplified_new
Scores
p377
(dp378
g10
I100
sg11
F0.8676362330285525
sg12
F1085033.4
sg13
Nsba(iGraphics.simplified_new
Scores
p379
(dp380
g10
I100
sg11
F0.7718932536458053
sg12
F1197214.5514
sg13
Nsba(iGraphics.simplified_new
Scores
p381
(dp382
g10
I100
sg11
F0.8545374194010229
sg12
F1132749.5545
sg13
Nsba(iGraphics.simplified_new
Scores
p383
(dp384
g10
I100
sg11
F0.7708968239552557
sg12
F1314136.9961
sg13
Nsba(iGraphics.simplified_new
Scores
p385
(dp386
g10
I100
sg11
F0.8353965848078734
sg12
F1073012.5844
sg13
Nsba(iGraphics.simplified_new
Scores
p387
(dp388
g10
I100
sg11
F0.8674477410465926
sg12
F1158722.5894
sg13
Nsba(iGraphics.simplified_new
Scores
p389
(dp390
g10
I100
sg11
F0.7662779276267295
sg12
F1180093.0998
sg13
Nsba(iGraphics.simplified_new
Scores
p391
(dp392
g10
I100
sg11
F0.8547838700152459
sg12
F1247218.5295
sg13
Nsba(iGraphics.simplified_new
Scores
p393
(dp394
g10
I100
sg11
F0.7611115343463818
sg12
F1206115.7562
sg13
Nsba(iGraphics.simplified_new
Scores
p395
(dp396
g10
I100
sg11
F0.8266371219168248
sg12
F1116735.8939
sg13
Nsba(iGraphics.simplified_new
Scores
p397
(dp398
g10
I100
sg11
F0.8442689475905416
sg12
F1202271.0914
sg13
Nsba(iGraphics.simplified_new
Scores
p399
(dp400
g10
I100
sg11
F0.8325758583582267
sg12
F1259495.2403
sg13
Nsba(iGraphics.simplified_new
Scores
p401
(dp402
g10
I100
sg11
F0.7827462210486712
sg12
F1091791.9133
sg13
Nsba(iGraphics.simplified_new
Scores
p403
(dp404
g10
I100
sg11
F0.9418615501884212
sg12
F1111693.5592
sg13
Nsba(iGraphics.simplified_new
Scores
p405
(dp406
g10
I100
sg11
F0.7635120981863511
sg12
F1176369.7737
sg13
Nsba(iGraphics.simplified_new
Scores
p407
(dp408
g10
I100
sg11
F0.8280568426602734
sg12
F1185355.4567
sg13
Nsba(iGraphics.simplified_new
Scores
p409
(dp410
g10
I100
sg11
F0.9878524817672643
sg12
F1139344.17
sg13
Nsba(iGraphics.simplified_new
Scores
p411
(dp412
g10
I100
sg11
F0.8777827494111312
sg12
F1209187.3981
sg13
Nsbasg52
S'NSGAII'
p413
sbs.