(dp0
S'SPEA2_100'
p1
(iGraphics.simplified_new
SolutionHolder
p2
(dp3
S'problem'
p4
S'POM3C'
p5
sS'repeats'
p6
(lp7
(iGraphics.simplified_new
Scores
p8
(dp9
S'pfs'
p10
I100
sS'spread'
p11
F0.5659559835428976
sS'hv'
p12
F1131655.0513
sS'igd'
p13
Nsba(iGraphics.simplified_new
Scores
p14
(dp15
g10
I100
sg11
F0.703876222977957
sg12
F1170419.8455
sg13
Nsba(iGraphics.simplified_new
Scores
p16
(dp17
g10
I100
sg11
F0.6462223483319885
sg12
F1120544.3112
sg13
Nsba(iGraphics.simplified_new
Scores
p18
(dp19
g10
I100
sg11
F0.5853725813954491
sg12
F1136629.3253
sg13
Nsba(iGraphics.simplified_new
Scores
p20
(dp21
g10
I100
sg11
F0.6270593077996812
sg12
F1165880.1806
sg13
Nsba(iGraphics.simplified_new
Scores
p22
(dp23
g10
I100
sg11
F0.6739889115390314
sg12
F1173149.4183
sg13
Nsba(iGraphics.simplified_new
Scores
p24
(dp25
g10
I100
sg11
F0.6186498387055466
sg12
F1143995.2137
sg13
Nsba(iGraphics.simplified_new
Scores
p26
(dp27
g10
I100
sg11
F0.6168044573414719
sg12
F1123434.3153
sg13
Nsba(iGraphics.simplified_new
Scores
p28
(dp29
g10
I100
sg11
F0.5944185369098782
sg12
F1120287.0596
sg13
Nsba(iGraphics.simplified_new
Scores
p30
(dp31
g10
I100
sg11
F0.6096666803017385
sg12
F1142681.5841
sg13
Nsba(iGraphics.simplified_new
Scores
p32
(dp33
g10
I100
sg11
F0.6717502985575192
sg12
F1147687.8232
sg13
Nsba(iGraphics.simplified_new
Scores
p34
(dp35
g10
I100
sg11
F0.6113536057608581
sg12
F1154696.3832
sg13
Nsba(iGraphics.simplified_new
Scores
p36
(dp37
g10
I100
sg11
F0.7276403987037108
sg12
F1115706.3046
sg13
Nsba(iGraphics.simplified_new
Scores
p38
(dp39
g10
I100
sg11
F0.6883680605890046
sg12
F1182375.0068
sg13
Nsba(iGraphics.simplified_new
Scores
p40
(dp41
g10
I100
sg11
F0.6366169652650736
sg12
F1134697.3738
sg13
Nsba(iGraphics.simplified_new
Scores
p42
(dp43
g10
I100
sg11
F0.7431780592904821
sg12
F1141953.5968
sg13
Nsba(iGraphics.simplified_new
Scores
p44
(dp45
g10
I100
sg11
F0.6322868747717784
sg12
F1160605.1984
sg13
Nsba(iGraphics.simplified_new
Scores
p46
(dp47
g10
I100
sg11
F0.6669946816112597
sg12
F1142711.9855
sg13
Nsba(iGraphics.simplified_new
Scores
p48
(dp49
g10
I100
sg11
F0.5936232126668725
sg12
F1171641.9317
sg13
Nsba(iGraphics.simplified_new
Scores
p50
(dp51
g10
I100
sg11
F0.6460858398168934
sg12
F1134006.2149
sg13
NsbasS'algorithm'
p52
S'SPEA2'
p53
sbsS'SWAY5_8192'
p54
(iGraphics.simplified_new
SolutionHolder
p55
(dp56
g4
g5
sg6
(lp57
(iGraphics.simplified_new
Scores
p58
(dp59
g10
I81
sg11
F0.4260327781891104
sg12
F878069.8456
sg13
Nsba(iGraphics.simplified_new
Scores
p60
(dp61
g10
I64
sg11
F0.4747713637948373
sg12
F924020.357
sg13
Nsba(iGraphics.simplified_new
Scores
p62
(dp63
g10
I45
sg11
F0.41332949396444246
sg12
F850473.7557
sg13
Nsba(iGraphics.simplified_new
Scores
p64
(dp65
g10
I72
sg11
F0.4406180881116742
sg12
F904360.7542
sg13
Nsba(iGraphics.simplified_new
Scores
p66
(dp67
g10
I73
sg11
F0.3972572072646328
sg12
F936121.5021
sg13
Nsba(iGraphics.simplified_new
Scores
p68
(dp69
g10
I28
sg11
F0.5102511387844334
sg12
F843430.1231
sg13
Nsba(iGraphics.simplified_new
Scores
p70
(dp71
g10
I81
sg11
F0.41725430988470663
sg12
F823530.9009
sg13
Nsba(iGraphics.simplified_new
Scores
p72
(dp73
g10
I80
sg11
F0.5034895382397133
sg12
F885663.1596
sg13
Nsba(iGraphics.simplified_new
Scores
p74
(dp75
g10
I42
sg11
F0.5564062939009702
sg12
F738730.2168
sg13
Nsba(iGraphics.simplified_new
Scores
p76
(dp77
g10
I79
sg11
F0.4750988194272519
sg12
F856798.5861
sg13
Nsba(iGraphics.simplified_new
Scores
p78
(dp79
g10
I30
sg11
F0.46513916904156466
sg12
F870758.6203
sg13
Nsba(iGraphics.simplified_new
Scores
p80
(dp81
g10
I84
sg11
F0.4175940458207527
sg12
F843614.8793
sg13
Nsba(iGraphics.simplified_new
Scores
p82
(dp83
g10
I84
sg11
F0.49856262265351103
sg12
F884253.9049
sg13
Nsba(iGraphics.simplified_new
Scores
p84
(dp85
g10
I56
sg11
F0.47881083392650575
sg12
F708107.1189
sg13
Nsba(iGraphics.simplified_new
Scores
p86
(dp87
g10
I48
sg11
F0.4377258479625029
sg12
F796390.1851
sg13
Nsba(iGraphics.simplified_new
Scores
p88
(dp89
g10
I36
sg11
F0.5005403561943746
sg12
F740029.0179
sg13
Nsba(iGraphics.simplified_new
Scores
p90
(dp91
g10
I72
sg11
F0.3921892900553986
sg12
F700146.3506
sg13
Nsba(iGraphics.simplified_new
Scores
p92
(dp93
g10
I63
sg11
F0.4658153970492755
sg12
F775060.9194
sg13
Nsba(iGraphics.simplified_new
Scores
p94
(dp95
g10
I48
sg11
F0.5100865211454233
sg12
F869596.2041
sg13
Nsba(iGraphics.simplified_new
Scores
p96
(dp97
g10
I75
sg11
F0.5493828113608815
sg12
F786465.1797
sg13
Nsbasg52
S'SWAY5'
p98
sbsS'SWAY5_1024'
p99
(iGraphics.simplified_new
SolutionHolder
p100
(dp101
g4
g5
sg6
(lp102
(iGraphics.simplified_new
Scores
p103
(dp104
g10
I16
sg11
F0.5625632964647166
sg12
F672064.9936
sg13
Nsba(iGraphics.simplified_new
Scores
p105
(dp106
g10
I31
sg11
F0.3956926063664655
sg12
F809424.1254
sg13
Nsba(iGraphics.simplified_new
Scores
p107
(dp108
g10
I31
sg11
F0.4890151702688566
sg12
F777603.9054
sg13
Nsba(iGraphics.simplified_new
Scores
p109
(dp110
g10
I18
sg11
F0.5359978932614285
sg12
F818131.5437
sg13
Nsba(iGraphics.simplified_new
Scores
p111
(dp112
g10
I16
sg11
F0.526404054410982
sg12
F767163.495
sg13
Nsba(iGraphics.simplified_new
Scores
p113
(dp114
g10
I24
sg11
F0.49080663432117133
sg12
F800461.3708
sg13
Nsba(iGraphics.simplified_new
Scores
p115
(dp116
g10
I25
sg11
F0.50332749667188
sg12
F844881.1505
sg13
Nsba(iGraphics.simplified_new
Scores
p117
(dp118
g10
I16
sg11
F0.5286516196817392
sg12
F802001.6109
sg13
Nsba(iGraphics.simplified_new
Scores
p119
(dp120
g10
I31
sg11
F0.5598750478917418
sg12
F736877.9129
sg13
Nsba(iGraphics.simplified_new
Scores
p121
(dp122
g10
I16
sg11
F0.6051910798960553
sg12
F772247.1618
sg13
Nsba(iGraphics.simplified_new
Scores
p123
(dp124
g10
I16
sg11
F0.6544948799072801
sg12
F685703.8932
sg13
Nsba(iGraphics.simplified_new
Scores
p125
(dp126
g10
I24
sg11
F0.5058046844221633
sg12
F795929.372
sg13
Nsba(iGraphics.simplified_new
Scores
p127
(dp128
g10
I16
sg11
F0.42931489453389726
sg12
F735382.6767
sg13
Nsba(iGraphics.simplified_new
Scores
p129
(dp130
g10
I31
sg11
F0.48812592346026623
sg12
F793295.3043
sg13
Nsba(iGraphics.simplified_new
Scores
p131
(dp132
g10
I16
sg11
F0.5627511498316784
sg12
F608301.5485
sg13
Nsba(iGraphics.simplified_new
Scores
p133
(dp134
g10
I16
sg11
F0.44050548555889796
sg12
F697880.9909
sg13
Nsba(iGraphics.simplified_new
Scores
p135
(dp136
g10
I24
sg11
F0.4074653368794595
sg12
F900407.1821
sg13
Nsba(iGraphics.simplified_new
Scores
p137
(dp138
g10
I21
sg11
F0.5642504387219393
sg12
F746086.3865
sg13
Nsba(iGraphics.simplified_new
Scores
p139
(dp140
g10
I16
sg11
F0.48301630372003046
sg12
F887730.7408
sg13
Nsba(iGraphics.simplified_new
Scores
p141
(dp142
g10
I24
sg11
F0.3882915098580323
sg12
F720311.8192
sg13
Nsbasg52
S'SWAY5'
p143
sbsS'SWAY5_2048'
p144
(iGraphics.simplified_new
SolutionHolder
p145
(dp146
g4
g5
sg6
(lp147
(iGraphics.simplified_new
Scores
p148
(dp149
g10
I31
sg11
F0.41555271116181214
sg12
F806363.8393
sg13
Nsba(iGraphics.simplified_new
Scores
p150
(dp151
g10
I24
sg11
F0.5622174338052772
sg12
F768549.2326
sg13
Nsba(iGraphics.simplified_new
Scores
p152
(dp153
g10
I28
sg11
F0.5246291502445332
sg12
F803283.5774
sg13
Nsba(iGraphics.simplified_new
Scores
p154
(dp155
g10
I42
sg11
F0.45331108844250106
sg12
F812247.3016
sg13
Nsba(iGraphics.simplified_new
Scores
p156
(dp157
g10
I24
sg11
F0.6243470856551068
sg12
F753181.0416
sg13
Nsba(iGraphics.simplified_new
Scores
p158
(dp159
g10
I31
sg11
F0.46901829583284715
sg12
F788242.8809
sg13
Nsba(iGraphics.simplified_new
Scores
p160
(dp161
g10
I24
sg11
F0.5668899740709052
sg12
F810981.4586
sg13
Nsba(iGraphics.simplified_new
Scores
p162
(dp163
g10
I23
sg11
F0.5169698228254147
sg12
F619460.9375
sg13
Nsba(iGraphics.simplified_new
Scores
p164
(dp165
g10
I24
sg11
F0.48528268891075826
sg12
F668725.8567
sg13
Nsba(iGraphics.simplified_new
Scores
p166
(dp167
g10
I32
sg11
F0.48564703609717635
sg12
F860645.1752
sg13
Nsba(iGraphics.simplified_new
Scores
p168
(dp169
g10
I31
sg11
F0.5132264309968507
sg12
F670608.851
sg13
Nsba(iGraphics.simplified_new
Scores
p170
(dp171
g10
I32
sg11
F0.48292255946828877
sg12
F737813.1731
sg13
Nsba(iGraphics.simplified_new
Scores
p172
(dp173
g10
I16
sg11
F0.48133660833527464
sg12
F640414.9293
sg13
Nsba(iGraphics.simplified_new
Scores
p174
(dp175
g10
I32
sg11
F0.5424200947643811
sg12
F783047.9561
sg13
Nsba(iGraphics.simplified_new
Scores
p176
(dp177
g10
I32
sg11
F0.44067982307203707
sg12
F863651.6638
sg13
Nsba(iGraphics.simplified_new
Scores
p178
(dp179
g10
I24
sg11
F0.48670495360717714
sg12
F710529.256
sg13
Nsba(iGraphics.simplified_new
Scores
p180
(dp181
g10
I16
sg11
F0.46631655301941594
sg12
F680065.1726
sg13
Nsba(iGraphics.simplified_new
Scores
p182
(dp183
g10
I18
sg11
F0.4913035326345351
sg12
F794103.7363
sg13
Nsba(iGraphics.simplified_new
Scores
p184
(dp185
g10
I18
sg11
F0.4836933201293492
sg12
F676359.2632
sg13
Nsba(iGraphics.simplified_new
Scores
p186
(dp187
g10
I32
sg11
F0.40659269140277643
sg12
F760258.9306
sg13
Nsbasg52
S'SWAY5'
p188
sbsS'SWAY5_10000'
p189
(iGraphics.simplified_new
SolutionHolder
p190
(dp191
g4
g5
sg6
(lp192
(iGraphics.simplified_new
Scores
p193
(dp194
g10
I87
sg11
F0.4498380553424104
sg12
F951850.1578
sg13
Nsba(iGraphics.simplified_new
Scores
p195
(dp196
g10
I58
sg11
F0.4061045999501163
sg12
F902635.9368
sg13
Nsba(iGraphics.simplified_new
Scores
p197
(dp198
g10
I25
sg11
F0.5773298274265501
sg12
F771979.7101
sg13
Nsba(iGraphics.simplified_new
Scores
p199
(dp200
g10
I59
sg11
F0.514673316412163
sg12
F892994.4113
sg13
Nsba(iGraphics.simplified_new
Scores
p201
(dp202
g10
I49
sg11
F0.4459896390839384
sg12
F864095.2411
sg13
Nsba(iGraphics.simplified_new
Scores
p203
(dp204
g10
I68
sg11
F0.4195209758053404
sg12
F795392.8087
sg13
Nsba(iGraphics.simplified_new
Scores
p205
(dp206
g10
I48
sg11
F0.4548058115408213
sg12
F848364.8986
sg13
Nsba(iGraphics.simplified_new
Scores
p207
(dp208
g10
I78
sg11
F0.4989233934004558
sg12
F749563.2324
sg13
Nsba(iGraphics.simplified_new
Scores
p209
(dp210
g10
I64
sg11
F0.4252383950711171
sg12
F736777.525
sg13
Nsba(iGraphics.simplified_new
Scores
p211
(dp212
g10
I29
sg11
F0.495393312941051
sg12
F664489.606
sg13
Nsba(iGraphics.simplified_new
Scores
p213
(dp214
g10
I29
sg11
F0.5282235681693062
sg12
F754232.6253
sg13
Nsba(iGraphics.simplified_new
Scores
p215
(dp216
g10
I62
sg11
F0.41589691339674445
sg12
F895021.3927
sg13
Nsba(iGraphics.simplified_new
Scores
p217
(dp218
g10
I68
sg11
F0.5912368530196481
sg12
F861866.9029
sg13
Nsba(iGraphics.simplified_new
Scores
p219
(dp220
g10
I68
sg11
F0.41830917597254225
sg12
F793938.3885
sg13
Nsba(iGraphics.simplified_new
Scores
p221
(dp222
g10
I62
sg11
F0.4100438725879859
sg12
F902314.23
sg13
Nsba(iGraphics.simplified_new
Scores
p223
(dp224
g10
I51
sg11
F0.431129527821187
sg12
F875795.7993
sg13
Nsba(iGraphics.simplified_new
Scores
p225
(dp226
g10
I78
sg11
F0.4280467985803209
sg12
F950089.814
sg13
Nsba(iGraphics.simplified_new
Scores
p227
(dp228
g10
I99
sg11
F0.4260399217306138
sg12
F863856.8794
sg13
Nsba(iGraphics.simplified_new
Scores
p229
(dp230
g10
I60
sg11
F0.564991108030175
sg12
F808197.1335
sg13
Nsba(iGraphics.simplified_new
Scores
p231
(dp232
g10
I78
sg11
F0.47310032518220635
sg12
F948217.9499
sg13
Nsbasg52
S'SWAY5'
p233
sbsS'SWAY5_4096'
p234
(iGraphics.simplified_new
SolutionHolder
p235
(dp236
g4
g5
sg6
(lp237
(iGraphics.simplified_new
Scores
p238
(dp239
g10
I33
sg11
F0.46506423228603033
sg12
F807844.6394
sg13
Nsba(iGraphics.simplified_new
Scores
p240
(dp241
g10
I56
sg11
F0.4248467969076378
sg12
F882376.2141
sg13
Nsba(iGraphics.simplified_new
Scores
p242
(dp243
g10
I48
sg11
F0.47305475936075364
sg12
F859392.4995
sg13
Nsba(iGraphics.simplified_new
Scores
p244
(dp245
g10
I63
sg11
F0.39949446081908474
sg12
F848096.7543
sg13
Nsba(iGraphics.simplified_new
Scores
p246
(dp247
g10
I17
sg11
F0.6478329208548029
sg12
F633854.3518
sg13
Nsba(iGraphics.simplified_new
Scores
p248
(dp249
g10
I63
sg11
F0.3642456093529477
sg12
F958886.1033
sg13
Nsba(iGraphics.simplified_new
Scores
p250
(dp251
g10
I63
sg11
F0.4825390387176945
sg12
F871260.8817
sg13
Nsba(iGraphics.simplified_new
Scores
p252
(dp253
g10
I24
sg11
F0.5045585061381389
sg12
F887966.3366
sg13
Nsba(iGraphics.simplified_new
Scores
p254
(dp255
g10
I48
sg11
F0.4954872756794557
sg12
F865089.835
sg13
Nsba(iGraphics.simplified_new
Scores
p256
(dp257
g10
I36
sg11
F0.4568387336309257
sg12
F805344.0847
sg13
Nsba(iGraphics.simplified_new
Scores
p258
(dp259
g10
I24
sg11
F0.48648185839736613
sg12
F820238.5846
sg13
Nsba(iGraphics.simplified_new
Scores
p260
(dp261
g10
I49
sg11
F0.41149398793123193
sg12
F866897.2686
sg13
Nsba(iGraphics.simplified_new
Scores
p262
(dp263
g10
I36
sg11
F0.5358438394291103
sg12
F780000.4687
sg13
Nsba(iGraphics.simplified_new
Scores
p264
(dp265
g10
I49
sg11
F0.5133819512719074
sg12
F731107.7034
sg13
Nsba(iGraphics.simplified_new
Scores
p266
(dp267
g10
I63
sg11
F0.43405803980767943
sg12
F855157.2681
sg13
Nsba(iGraphics.simplified_new
Scores
p268
(dp269
g10
I24
sg11
F0.5525944936247906
sg12
F826935.554
sg13
Nsba(iGraphics.simplified_new
Scores
p270
(dp271
g10
I32
sg11
F0.5067886650562586
sg12
F723146.7315
sg13
Nsba(iGraphics.simplified_new
Scores
p272
(dp273
g10
I24
sg11
F0.448819006439866
sg12
F816037.393
sg13
Nsba(iGraphics.simplified_new
Scores
p274
(dp275
g10
I56
sg11
F0.42320448171791847
sg12
F791166.9254
sg13
Nsba(iGraphics.simplified_new
Scores
p276
(dp277
g10
I32
sg11
F0.5392255867046405
sg12
F835516.7267
sg13
Nsbasg52
S'SWAY5'
p278
sbsS'SWAY5_512'
p279
(iGraphics.simplified_new
SolutionHolder
p280
(dp281
g4
g5
sg6
(lp282
(iGraphics.simplified_new
Scores
p283
(dp284
g10
I12
sg11
F0.491958190650666
sg12
F655755.925
sg13
Nsba(iGraphics.simplified_new
Scores
p285
(dp286
g10
I15
sg11
F0.5831285502320976
sg12
F728433.6491
sg13
Nsba(iGraphics.simplified_new
Scores
p287
(dp288
g10
I16
sg11
F0.5720726568342565
sg12
F761856.6714
sg13
Nsba(iGraphics.simplified_new
Scores
p289
(dp290
g10
I16
sg11
F0.39591796010943814
sg12
F776288.1115
sg13
Nsba(iGraphics.simplified_new
Scores
p291
(dp292
g10
I16
sg11
F0.5069482103999841
sg12
F748126.1165
sg13
Nsba(iGraphics.simplified_new
Scores
p293
(dp294
g10
I16
sg11
F0.5256641091137291
sg12
F657005.9144
sg13
Nsba(iGraphics.simplified_new
Scores
p295
(dp296
g10
I16
sg11
F0.3919482386240673
sg12
F740015.2222
sg13
Nsba(iGraphics.simplified_new
Scores
p297
(dp298
g10
I12
sg11
F0.6170492207589379
sg12
F845558.211
sg13
Nsba(iGraphics.simplified_new
Scores
p299
(dp300
g10
I12
sg11
F0.44173346695105115
sg12
F641493.0158
sg13
Nsba(iGraphics.simplified_new
Scores
p301
(dp302
g10
I16
sg11
F0.5975922627257347
sg12
F708506.8852
sg13
Nsba(iGraphics.simplified_new
Scores
p303
(dp304
g10
I16
sg11
F0.3062648107397533
sg12
F866164.4999
sg13
Nsba(iGraphics.simplified_new
Scores
p305
(dp306
g10
I21
sg11
F0.46777890479310014
sg12
F607705.9251
sg13
Nsba(iGraphics.simplified_new
Scores
p307
(dp308
g10
I16
sg11
F0.44350680471954346
sg12
F709024.4306
sg13
Nsba(iGraphics.simplified_new
Scores
p309
(dp310
g10
I16
sg11
F0.4902666594823828
sg12
F780656.8088
sg13
Nsba(iGraphics.simplified_new
Scores
p311
(dp312
g10
I16
sg11
F0.569811720733053
sg12
F831014.4732
sg13
Nsba(iGraphics.simplified_new
Scores
p313
(dp314
g10
I12
sg11
F0.6285696134352697
sg12
F734603.8996
sg13
Nsba(iGraphics.simplified_new
Scores
p315
(dp316
g10
I12
sg11
F0.5881180847242828
sg12
F636068.8521
sg13
Nsba(iGraphics.simplified_new
Scores
p317
(dp318
g10
I12
sg11
F0.5617781568777155
sg12
F766843.4172
sg13
Nsba(iGraphics.simplified_new
Scores
p319
(dp320
g10
I16
sg11
F0.6182358719901041
sg12
F716871.464
sg13
Nsba(iGraphics.simplified_new
Scores
p321
(dp322
g10
I16
sg11
F0.4871780696814275
sg12
F754957.5376
sg13
Nsbasg52
S'SWAY5'
p323
sbsS'SWAY5_100'
p324
(iGraphics.simplified_new
SolutionHolder
p325
(dp326
g4
g5
sg6
(lp327
(iGraphics.simplified_new
Scores
p328
(dp329
g10
I6
sg11
F0.8313857360447025
sg12
F603025.3071
sg13
Nsba(iGraphics.simplified_new
Scores
p330
(dp331
g10
I6
sg11
F0.7288439244169294
sg12
F557445.063
sg13
Nsba(iGraphics.simplified_new
Scores
p332
(dp333
g10
I6
sg11
F0.6954393645079552
sg12
F611594.5181
sg13
Nsba(iGraphics.simplified_new
Scores
p334
(dp335
g10
I6
sg11
F0.7226911911782137
sg12
F773533.1657
sg13
Nsba(iGraphics.simplified_new
Scores
p336
(dp337
g10
I6
sg11
F0.6774387378969152
sg12
F749865.9826
sg13
Nsba(iGraphics.simplified_new
Scores
p338
(dp339
g10
I9
sg11
F0.5515254413781302
sg12
F586026.1261
sg13
Nsba(iGraphics.simplified_new
Scores
p340
(dp341
g10
I6
sg11
F0.5385346245708126
sg12
F518584.9644
sg13
Nsba(iGraphics.simplified_new
Scores
p342
(dp343
g10
I6
sg11
F0.5370351164543853
sg12
F688456.1261
sg13
Nsba(iGraphics.simplified_new
Scores
p344
(dp345
g10
I6
sg11
F0.6908870152528616
sg12
F534127.8451
sg13
Nsba(iGraphics.simplified_new
Scores
p346
(dp347
g10
I7
sg11
F0.6826793434804485
sg12
F568933.7363
sg13
Nsba(iGraphics.simplified_new
Scores
p348
(dp349
g10
I6
sg11
F0.7914141239766336
sg12
F504869.4854
sg13
Nsba(iGraphics.simplified_new
Scores
p350
(dp351
g10
I6
sg11
F0.7782240529871798
sg12
F576142.5554
sg13
Nsba(iGraphics.simplified_new
Scores
p352
(dp353
g10
I6
sg11
F0.7001403809518942
sg12
F517295.0661
sg13
Nsba(iGraphics.simplified_new
Scores
p354
(dp355
g10
I6
sg11
F0.6235656260132428
sg12
F690122.6097
sg13
Nsba(iGraphics.simplified_new
Scores
p356
(dp357
g10
I5
sg11
F0.8710033378159974
sg12
F564561.4922
sg13
Nsba(iGraphics.simplified_new
Scores
p358
(dp359
g10
I6
sg11
F0.4840669823802332
sg12
F600605.5217
sg13
Nsba(iGraphics.simplified_new
Scores
p360
(dp361
g10
I6
sg11
F0.6905152793820573
sg12
F640259.2293
sg13
Nsba(iGraphics.simplified_new
Scores
p362
(dp363
g10
I6
sg11
F0.577478255447731
sg12
F668652.9459
sg13
Nsba(iGraphics.simplified_new
Scores
p364
(dp365
g10
I6
sg11
F0.7987433118138528
sg12
F596130.672
sg13
Nsba(iGraphics.simplified_new
Scores
p366
(dp367
g10
I6
sg11
F0.7113178382132577
sg12
F764770.4688
sg13
Nsbasg52
S'SWAY5'
p368
sbsS'NSGAII_100'
p369
(iGraphics.simplified_new
SolutionHolder
p370
(dp371
g4
g5
sg6
(lp372
(iGraphics.simplified_new
Scores
p373
(dp374
g10
I100
sg11
F0.5166857256595824
sg12
F1164571.5413
sg13
Nsba(iGraphics.simplified_new
Scores
p375
(dp376
g10
I100
sg11
F0.5248276121817201
sg12
F1140555.8303
sg13
Nsba(iGraphics.simplified_new
Scores
p377
(dp378
g10
I100
sg11
F0.6135341671392368
sg12
F1169184.5874
sg13
Nsba(iGraphics.simplified_new
Scores
p379
(dp380
g10
I100
sg11
F0.6496697035289232
sg12
F1134524.4896
sg13
Nsba(iGraphics.simplified_new
Scores
p381
(dp382
g10
I100
sg11
F0.6485911449459505
sg12
F1147388.7608
sg13
Nsba(iGraphics.simplified_new
Scores
p383
(dp384
g10
I100
sg11
F0.5942028361774614
sg12
F1212148.3123
sg13
Nsba(iGraphics.simplified_new
Scores
p385
(dp386
g10
I100
sg11
F0.6723910299317442
sg12
F1159477.8911
sg13
Nsba(iGraphics.simplified_new
Scores
p387
(dp388
g10
I100
sg11
F0.7365393091788297
sg12
F1111097.3176
sg13
Nsba(iGraphics.simplified_new
Scores
p389
(dp390
g10
I100
sg11
F0.5860291650678913
sg12
F1168057.5305
sg13
Nsba(iGraphics.simplified_new
Scores
p391
(dp392
g10
I100
sg11
F0.6283687257095392
sg12
F1164391.9328
sg13
Nsba(iGraphics.simplified_new
Scores
p393
(dp394
g10
I100
sg11
F0.5404640635904772
sg12
F1190651.2051
sg13
Nsba(iGraphics.simplified_new
Scores
p395
(dp396
g10
I100
sg11
F0.5535085873584412
sg12
F1150236.7145
sg13
Nsba(iGraphics.simplified_new
Scores
p397
(dp398
g10
I100
sg11
F0.5330083798263535
sg12
F1126990.3068
sg13
Nsba(iGraphics.simplified_new
Scores
p399
(dp400
g10
I100
sg11
F0.5489871901274318
sg12
F1155117.5557
sg13
Nsba(iGraphics.simplified_new
Scores
p401
(dp402
g10
I100
sg11
F0.6429227103930912
sg12
F1146151.3887
sg13
Nsba(iGraphics.simplified_new
Scores
p403
(dp404
g10
I100
sg11
F0.4576834220275629
sg12
F1150143.9962
sg13
Nsba(iGraphics.simplified_new
Scores
p405
(dp406
g10
I100
sg11
F0.5487477196825379
sg12
F1166479.5889
sg13
Nsba(iGraphics.simplified_new
Scores
p407
(dp408
g10
I100
sg11
F0.6561705844155361
sg12
F1122389.486
sg13
Nsba(iGraphics.simplified_new
Scores
p409
(dp410
g10
I100
sg11
F0.4454768609337465
sg12
F1152170.4301
sg13
Nsba(iGraphics.simplified_new
Scores
p411
(dp412
g10
I100
sg11
F0.585117353675394
sg12
F1095035.4543
sg13
Nsbasg52
S'NSGAII'
p413
sbs.