(dp0
S'SPEA2_100'
p1
(iGraphics.simplified_new
SolutionHolder
p2
(dp3
S'problem'
p4
S'POM3D'
p5
sS'repeats'
p6
(lp7
(iGraphics.simplified_new
Scores
p8
(dp9
S'pfs'
p10
I100
sS'spread'
p11
F0.8221109746269796
sS'hv'
p12
F1315027.909
sS'igd'
p13
Nsba(iGraphics.simplified_new
Scores
p14
(dp15
g10
I100
sg11
F0.6691469673867905
sg12
F1302636.6808
sg13
Nsba(iGraphics.simplified_new
Scores
p16
(dp17
g10
I100
sg11
F0.7742145802309794
sg12
F1303917.4032
sg13
Nsba(iGraphics.simplified_new
Scores
p18
(dp19
g10
I100
sg11
F0.7455547567161519
sg12
F1292331.7554
sg13
Nsba(iGraphics.simplified_new
Scores
p20
(dp21
g10
I100
sg11
F0.7697294524275227
sg12
F1303753.498
sg13
Nsba(iGraphics.simplified_new
Scores
p22
(dp23
g10
I100
sg11
F0.7924670417980948
sg12
F1306963.4485
sg13
Nsba(iGraphics.simplified_new
Scores
p24
(dp25
g10
I100
sg11
F0.8255894989750105
sg12
F1322139.0696
sg13
Nsba(iGraphics.simplified_new
Scores
p26
(dp27
g10
I100
sg11
F0.8670331463043777
sg12
F1321449.3782
sg13
Nsba(iGraphics.simplified_new
Scores
p28
(dp29
g10
I100
sg11
F0.8222106212295833
sg12
F1286936.8097
sg13
Nsba(iGraphics.simplified_new
Scores
p30
(dp31
g10
I100
sg11
F0.8193278613013453
sg12
F1297962.9954
sg13
Nsba(iGraphics.simplified_new
Scores
p32
(dp33
g10
I100
sg11
F0.7506622820462767
sg12
F1287205.5095
sg13
Nsba(iGraphics.simplified_new
Scores
p34
(dp35
g10
I100
sg11
F0.8250871314639724
sg12
F1309894.3428
sg13
Nsba(iGraphics.simplified_new
Scores
p36
(dp37
g10
I100
sg11
F0.8374326316928993
sg12
F1285468.598
sg13
Nsba(iGraphics.simplified_new
Scores
p38
(dp39
g10
I100
sg11
F0.7286989587516455
sg12
F1293415.2028
sg13
Nsba(iGraphics.simplified_new
Scores
p40
(dp41
g10
I100
sg11
F0.7635006670846056
sg12
F1323364.4229
sg13
Nsba(iGraphics.simplified_new
Scores
p42
(dp43
g10
I100
sg11
F0.7561247895968071
sg12
F1285529.3763
sg13
Nsba(iGraphics.simplified_new
Scores
p44
(dp45
g10
I100
sg11
F0.852603005600073
sg12
F1311962.0425
sg13
Nsba(iGraphics.simplified_new
Scores
p46
(dp47
g10
I100
sg11
F0.8495873568808024
sg12
F1319742.3971
sg13
Nsba(iGraphics.simplified_new
Scores
p48
(dp49
g10
I100
sg11
F0.7550010350580141
sg12
F1289758.4186
sg13
Nsba(iGraphics.simplified_new
Scores
p50
(dp51
g10
I100
sg11
F0.9201835878495783
sg12
F1307999.1752
sg13
NsbasS'algorithm'
p52
S'SPEA2'
p53
sbsS'SWAY5_8192'
p54
(iGraphics.simplified_new
SolutionHolder
p55
(dp56
g4
g5
sg6
(lp57
(iGraphics.simplified_new
Scores
p58
(dp59
g10
I32
sg11
F0.5141338947151114
sg12
F1215698.7893
sg13
Nsba(iGraphics.simplified_new
Scores
p60
(dp61
g10
I56
sg11
F0.6056277729048625
sg12
F1246985.7726
sg13
Nsba(iGraphics.simplified_new
Scores
p62
(dp63
g10
I86
sg11
F0.5611904541148456
sg12
F1245512.5323
sg13
Nsba(iGraphics.simplified_new
Scores
p64
(dp65
g10
I63
sg11
F0.44222740245254366
sg12
F1232481.9569
sg13
Nsba(iGraphics.simplified_new
Scores
p66
(dp67
g10
I48
sg11
F0.5207797543853657
sg12
F1257414.8201
sg13
Nsba(iGraphics.simplified_new
Scores
p68
(dp69
g10
I64
sg11
F0.5272704376787963
sg12
F1251018.9876
sg13
Nsba(iGraphics.simplified_new
Scores
p70
(dp71
g10
I54
sg11
F0.5719143139949018
sg12
F1235082.9819
sg13
Nsba(iGraphics.simplified_new
Scores
p72
(dp73
g10
I63
sg11
F0.5811382655274939
sg12
F1249880.2962
sg13
Nsba(iGraphics.simplified_new
Scores
p74
(dp75
g10
I63
sg11
F0.5257646974640865
sg12
F1223574.6536
sg13
Nsba(iGraphics.simplified_new
Scores
p76
(dp77
g10
I32
sg11
F0.5737165218763026
sg12
F1222341.4788
sg13
Nsba(iGraphics.simplified_new
Scores
p78
(dp79
g10
I48
sg11
F0.4897650123177295
sg12
F1225454.1462
sg13
Nsba(iGraphics.simplified_new
Scores
p80
(dp81
g10
I24
sg11
F0.522770076253349
sg12
F1212396.9211
sg13
Nsba(iGraphics.simplified_new
Scores
p82
(dp83
g10
I64
sg11
F0.44737356475516243
sg12
F1225554.6215
sg13
Nsba(iGraphics.simplified_new
Scores
p84
(dp85
g10
I84
sg11
F0.4734937647045545
sg12
F1211296.9457
sg13
Nsba(iGraphics.simplified_new
Scores
p86
(dp87
g10
I32
sg11
F0.49714881145637785
sg12
F1187247.4935
sg13
Nsba(iGraphics.simplified_new
Scores
p88
(dp89
g10
I64
sg11
F0.4520453702248669
sg12
F1227436.4199
sg13
Nsba(iGraphics.simplified_new
Scores
p90
(dp91
g10
I48
sg11
F0.5922843978110677
sg12
F1207031.3294
sg13
Nsba(iGraphics.simplified_new
Scores
p92
(dp93
g10
I28
sg11
F0.728216356866712
sg12
F1253104.1863
sg13
Nsba(iGraphics.simplified_new
Scores
p94
(dp95
g10
I48
sg11
F0.560965269295099
sg12
F1251675.9739
sg13
Nsba(iGraphics.simplified_new
Scores
p96
(dp97
g10
I64
sg11
F0.4560540254446882
sg12
F1243100.5457
sg13
Nsbasg52
S'SWAY5'
p98
sbsS'SWAY5_1024'
p99
(iGraphics.simplified_new
SolutionHolder
p100
(dp101
g4
g5
sg6
(lp102
(iGraphics.simplified_new
Scores
p103
(dp104
g10
I31
sg11
F0.4880920965618985
sg12
F1175731.327
sg13
Nsba(iGraphics.simplified_new
Scores
p105
(dp106
g10
I31
sg11
F0.44616731080528776
sg12
F1103166.155
sg13
Nsba(iGraphics.simplified_new
Scores
p107
(dp108
g10
I24
sg11
F0.5782762325868482
sg12
F1144415.0336
sg13
Nsba(iGraphics.simplified_new
Scores
p109
(dp110
g10
I31
sg11
F0.4658664351913862
sg12
F1230373.394
sg13
Nsba(iGraphics.simplified_new
Scores
p111
(dp112
g10
I16
sg11
F0.6110432434658658
sg12
F1128968.272
sg13
Nsba(iGraphics.simplified_new
Scores
p113
(dp114
g10
I24
sg11
F0.5283990461062809
sg12
F1206157.3099
sg13
Nsba(iGraphics.simplified_new
Scores
p115
(dp116
g10
I28
sg11
F0.5021888448986911
sg12
F1258943.6865
sg13
Nsba(iGraphics.simplified_new
Scores
p117
(dp118
g10
I16
sg11
F0.5960271149443933
sg12
F1208522.1784
sg13
Nsba(iGraphics.simplified_new
Scores
p119
(dp120
g10
I28
sg11
F0.5655151390245634
sg12
F1214976.6061
sg13
Nsba(iGraphics.simplified_new
Scores
p121
(dp122
g10
I16
sg11
F0.6125722491752368
sg12
F1188058.4188
sg13
Nsba(iGraphics.simplified_new
Scores
p123
(dp124
g10
I28
sg11
F0.5507242409200567
sg12
F1189799.5944
sg13
Nsba(iGraphics.simplified_new
Scores
p125
(dp126
g10
I18
sg11
F0.6487947709041644
sg12
F1103412.5633
sg13
Nsba(iGraphics.simplified_new
Scores
p127
(dp128
g10
I24
sg11
F0.6299222565057064
sg12
F1180173.7507
sg13
Nsba(iGraphics.simplified_new
Scores
p129
(dp130
g10
I24
sg11
F0.5151350659518941
sg12
F1212864.7917
sg13
Nsba(iGraphics.simplified_new
Scores
p131
(dp132
g10
I18
sg11
F0.59412083606687
sg12
F1218049.9922
sg13
Nsba(iGraphics.simplified_new
Scores
p133
(dp134
g10
I16
sg11
F0.6958058771911844
sg12
F1162252.3262
sg13
Nsba(iGraphics.simplified_new
Scores
p135
(dp136
g10
I16
sg11
F0.5130550093713097
sg12
F1158174.1619
sg13
Nsba(iGraphics.simplified_new
Scores
p137
(dp138
g10
I31
sg11
F0.5802510248756058
sg12
F1222065.1633
sg13
Nsba(iGraphics.simplified_new
Scores
p139
(dp140
g10
I16
sg11
F0.6351261163495785
sg12
F1204764.5161
sg13
Nsba(iGraphics.simplified_new
Scores
p141
(dp142
g10
I21
sg11
F0.4795500554582185
sg12
F1145163.3596
sg13
Nsbasg52
S'SWAY5'
p143
sbsS'SWAY5_2048'
p144
(iGraphics.simplified_new
SolutionHolder
p145
(dp146
g4
g5
sg6
(lp147
(iGraphics.simplified_new
Scores
p148
(dp149
g10
I28
sg11
F0.6423495868274233
sg12
F1254498.9039
sg13
Nsba(iGraphics.simplified_new
Scores
p150
(dp151
g10
I42
sg11
F0.5108010210565054
sg12
F1217687.7838
sg13
Nsba(iGraphics.simplified_new
Scores
p152
(dp153
g10
I32
sg11
F0.4510919295616858
sg12
F1224073.6437
sg13
Nsba(iGraphics.simplified_new
Scores
p154
(dp155
g10
I30
sg11
F0.6266613757571703
sg12
F1288631.9616
sg13
Nsba(iGraphics.simplified_new
Scores
p156
(dp157
g10
I39
sg11
F0.48575917282598613
sg12
F1201955.8448
sg13
Nsba(iGraphics.simplified_new
Scores
p158
(dp159
g10
I31
sg11
F0.6209985184803957
sg12
F1218256.6773
sg13
Nsba(iGraphics.simplified_new
Scores
p160
(dp161
g10
I36
sg11
F0.545159819683479
sg12
F1233416.4453
sg13
Nsba(iGraphics.simplified_new
Scores
p162
(dp163
g10
I16
sg11
F0.6082082269870065
sg12
F1183145.5816
sg13
Nsba(iGraphics.simplified_new
Scores
p164
(dp165
g10
I24
sg11
F0.5768082325370237
sg12
F1195335.9086
sg13
Nsba(iGraphics.simplified_new
Scores
p166
(dp167
g10
I45
sg11
F0.4755291392459998
sg12
F1180765.917
sg13
Nsba(iGraphics.simplified_new
Scores
p168
(dp169
g10
I24
sg11
F0.7073070526229692
sg12
F1187597.8504
sg13
Nsba(iGraphics.simplified_new
Scores
p170
(dp171
g10
I25
sg11
F0.5744364416309737
sg12
F1233268.1064
sg13
Nsba(iGraphics.simplified_new
Scores
p172
(dp173
g10
I28
sg11
F0.49197718569569726
sg12
F1172756.9317
sg13
Nsba(iGraphics.simplified_new
Scores
p174
(dp175
g10
I24
sg11
F0.6694986922430186
sg12
F1200727.2965
sg13
Nsba(iGraphics.simplified_new
Scores
p176
(dp177
g10
I42
sg11
F0.5501636385730806
sg12
F1247731.5224
sg13
Nsba(iGraphics.simplified_new
Scores
p178
(dp179
g10
I24
sg11
F0.6363231300725001
sg12
F1235300.4809
sg13
Nsba(iGraphics.simplified_new
Scores
p180
(dp181
g10
I24
sg11
F0.6298475591756867
sg12
F1235513.705
sg13
Nsba(iGraphics.simplified_new
Scores
p182
(dp183
g10
I34
sg11
F0.5712698131601514
sg12
F1178911.7439
sg13
Nsba(iGraphics.simplified_new
Scores
p184
(dp185
g10
I32
sg11
F0.5120060442002232
sg12
F1221275.8293
sg13
Nsba(iGraphics.simplified_new
Scores
p186
(dp187
g10
I32
sg11
F0.5707600473175838
sg12
F1199864.21
sg13
Nsbasg52
S'SWAY5'
p188
sbsS'SWAY5_10000'
p189
(iGraphics.simplified_new
SolutionHolder
p190
(dp191
g4
g5
sg6
(lp192
(iGraphics.simplified_new
Scores
p193
(dp194
g10
I78
sg11
F0.5099373877205928
sg12
F1230267.1101
sg13
Nsba(iGraphics.simplified_new
Scores
p195
(dp196
g10
I73
sg11
F0.5358967517877544
sg12
F1243035.5605
sg13
Nsba(iGraphics.simplified_new
Scores
p197
(dp198
g10
I38
sg11
F0.538168861853264
sg12
F1242023.3076
sg13
Nsba(iGraphics.simplified_new
Scores
p199
(dp200
g10
I78
sg11
F0.5303981264705812
sg12
F1243871.5611
sg13
Nsba(iGraphics.simplified_new
Scores
p201
(dp202
g10
I58
sg11
F0.5536184904043504
sg12
F1206924.8381
sg13
Nsba(iGraphics.simplified_new
Scores
p203
(dp204
g10
I88
sg11
F0.5293816133617417
sg12
F1159129.7605
sg13
Nsba(iGraphics.simplified_new
Scores
p205
(dp206
g10
I78
sg11
F0.4885716397398518
sg12
F1225069.127
sg13
Nsba(iGraphics.simplified_new
Scores
p207
(dp208
g10
I58
sg11
F0.49571355286218344
sg12
F1228830.8105
sg13
Nsba(iGraphics.simplified_new
Scores
p209
(dp210
g10
I78
sg11
F0.5366384547322179
sg12
F1245205.3682
sg13
Nsba(iGraphics.simplified_new
Scores
p211
(dp212
g10
I36
sg11
F0.5441553748178749
sg12
F1230450.002
sg13
Nsba(iGraphics.simplified_new
Scores
p213
(dp214
g10
I28
sg11
F0.5567150365933405
sg12
F1138859.291
sg13
Nsba(iGraphics.simplified_new
Scores
p215
(dp216
g10
I27
sg11
F0.5319693192465242
sg12
F1241263.7814
sg13
Nsba(iGraphics.simplified_new
Scores
p217
(dp218
g10
I88
sg11
F0.42054876173785344
sg12
F1243100.6162
sg13
Nsba(iGraphics.simplified_new
Scores
p219
(dp220
g10
I52
sg11
F0.4489683701605546
sg12
F1194970.445
sg13
Nsba(iGraphics.simplified_new
Scores
p221
(dp222
g10
I99
sg11
F0.538168160791457
sg12
F1231696.0789
sg13
Nsba(iGraphics.simplified_new
Scores
p223
(dp224
g10
I93
sg11
F0.4366972948127004
sg12
F1223707.4797
sg13
Nsba(iGraphics.simplified_new
Scores
p225
(dp226
g10
I73
sg11
F0.4660161985148889
sg12
F1214812.7126
sg13
Nsba(iGraphics.simplified_new
Scores
p227
(dp228
g10
I58
sg11
F0.5575997434833818
sg12
F1189044.7169
sg13
Nsba(iGraphics.simplified_new
Scores
p229
(dp230
g10
I78
sg11
F0.45165890318285756
sg12
F1299709.5456
sg13
Nsba(iGraphics.simplified_new
Scores
p231
(dp232
g10
I66
sg11
F0.5352630486502734
sg12
F1228698.6237
sg13
Nsbasg52
S'SWAY5'
p233
sbsS'SWAY5_4096'
p234
(iGraphics.simplified_new
SolutionHolder
p235
(dp236
g4
g5
sg6
(lp237
(iGraphics.simplified_new
Scores
p238
(dp239
g10
I63
sg11
F0.6201134529740889
sg12
F1218881.2628
sg13
Nsba(iGraphics.simplified_new
Scores
p240
(dp241
g10
I28
sg11
F0.5639886134710713
sg12
F1231823.3823
sg13
Nsba(iGraphics.simplified_new
Scores
p242
(dp243
g10
I32
sg11
F0.6811640382625048
sg12
F1297389.8392
sg13
Nsba(iGraphics.simplified_new
Scores
p244
(dp245
g10
I48
sg11
F0.5212968607988555
sg12
F1228127.8414
sg13
Nsba(iGraphics.simplified_new
Scores
p246
(dp247
g10
I24
sg11
F0.6074321552454799
sg12
F1241590.7621
sg13
Nsba(iGraphics.simplified_new
Scores
p248
(dp249
g10
I63
sg11
F0.5658640177049172
sg12
F1228330.5994
sg13
Nsba(iGraphics.simplified_new
Scores
p250
(dp251
g10
I48
sg11
F0.5016336488386541
sg12
F1126133.075
sg13
Nsba(iGraphics.simplified_new
Scores
p252
(dp253
g10
I63
sg11
F0.6052831565545513
sg12
F1234398.2751
sg13
Nsba(iGraphics.simplified_new
Scores
p254
(dp255
g10
I63
sg11
F0.4791981930397161
sg12
F1239474.9788
sg13
Nsba(iGraphics.simplified_new
Scores
p256
(dp257
g10
I48
sg11
F0.5504868368767388
sg12
F1182216.6966
sg13
Nsba(iGraphics.simplified_new
Scores
p258
(dp259
g10
I51
sg11
F0.44564661929386995
sg12
F1068494.4724
sg13
Nsba(iGraphics.simplified_new
Scores
p260
(dp261
g10
I48
sg11
F0.5725648220913743
sg12
F1205209.1397
sg13
Nsba(iGraphics.simplified_new
Scores
p262
(dp263
g10
I32
sg11
F0.5212239234585346
sg12
F1227076.1349
sg13
Nsba(iGraphics.simplified_new
Scores
p264
(dp265
g10
I39
sg11
F0.6172625518456226
sg12
F1222207.9568
sg13
Nsba(iGraphics.simplified_new
Scores
p266
(dp267
g10
I45
sg11
F0.613035996475615
sg12
F1250309.8344
sg13
Nsba(iGraphics.simplified_new
Scores
p268
(dp269
g10
I22
sg11
F0.5932055500591061
sg12
F1209998.0803
sg13
Nsba(iGraphics.simplified_new
Scores
p270
(dp271
g10
I56
sg11
F0.5508691817859581
sg12
F1217671.0296
sg13
Nsba(iGraphics.simplified_new
Scores
p272
(dp273
g10
I63
sg11
F0.6273761154326238
sg12
F1276596.8381
sg13
Nsba(iGraphics.simplified_new
Scores
p274
(dp275
g10
I42
sg11
F0.4543583333281437
sg12
F1193796.1561
sg13
Nsba(iGraphics.simplified_new
Scores
p276
(dp277
g10
I63
sg11
F0.4734895387623925
sg12
F1165742.125
sg13
Nsbasg52
S'SWAY5'
p278
sbsS'SWAY5_512'
p279
(iGraphics.simplified_new
SolutionHolder
p280
(dp281
g4
g5
sg6
(lp282
(iGraphics.simplified_new
Scores
p283
(dp284
g10
I16
sg11
F0.6635028907111912
sg12
F1203657.6836
sg13
Nsba(iGraphics.simplified_new
Scores
p285
(dp286
g10
I16
sg11
F0.5375308853406794
sg12
F1202511.1246
sg13
Nsba(iGraphics.simplified_new
Scores
p287
(dp288
g10
I15
sg11
F0.5392290550660628
sg12
F1204136.5328
sg13
Nsba(iGraphics.simplified_new
Scores
p289
(dp290
g10
I12
sg11
F0.37343971566441064
sg12
F1081305.7817
sg13
Nsba(iGraphics.simplified_new
Scores
p291
(dp292
g10
I16
sg11
F0.682327659330234
sg12
F1257952.9622
sg13
Nsba(iGraphics.simplified_new
Scores
p293
(dp294
g10
I16
sg11
F0.5847123274069408
sg12
F1177283.1403
sg13
Nsba(iGraphics.simplified_new
Scores
p295
(dp296
g10
I12
sg11
F0.6910198731024703
sg12
F1275784.3944
sg13
Nsba(iGraphics.simplified_new
Scores
p297
(dp298
g10
I12
sg11
F0.6997171941146257
sg12
F1112383.8247
sg13
Nsba(iGraphics.simplified_new
Scores
p299
(dp300
g10
I16
sg11
F0.7370920793226666
sg12
F1212162.7403
sg13
Nsba(iGraphics.simplified_new
Scores
p301
(dp302
g10
I16
sg11
F0.6618885252683174
sg12
F1172701.4089
sg13
Nsba(iGraphics.simplified_new
Scores
p303
(dp304
g10
I16
sg11
F0.6036906069407242
sg12
F1220613.8976
sg13
Nsba(iGraphics.simplified_new
Scores
p305
(dp306
g10
I16
sg11
F0.6307417351778265
sg12
F1195216.9539
sg13
Nsba(iGraphics.simplified_new
Scores
p307
(dp308
g10
I14
sg11
F0.5650646258827837
sg12
F1128064.0474
sg13
Nsba(iGraphics.simplified_new
Scores
p309
(dp310
g10
I15
sg11
F0.5002299870393292
sg12
F1177328.1603
sg13
Nsba(iGraphics.simplified_new
Scores
p311
(dp312
g10
I21
sg11
F0.6408648834539412
sg12
F1189232.2226
sg13
Nsba(iGraphics.simplified_new
Scores
p313
(dp314
g10
I18
sg11
F0.5952066603736258
sg12
F1198661.45
sg13
Nsba(iGraphics.simplified_new
Scores
p315
(dp316
g10
I15
sg11
F0.5585401770334772
sg12
F1098671.8267
sg13
Nsba(iGraphics.simplified_new
Scores
p317
(dp318
g10
I16
sg11
F0.5702474343883392
sg12
F1273413.2333
sg13
Nsba(iGraphics.simplified_new
Scores
p319
(dp320
g10
I15
sg11
F0.6726144466960017
sg12
F1177580.7439
sg13
Nsba(iGraphics.simplified_new
Scores
p321
(dp322
g10
I21
sg11
F0.5851801037578224
sg12
F1245530.9886
sg13
Nsbasg52
S'SWAY5'
p323
sbsS'SWAY5_100'
p324
(iGraphics.simplified_new
SolutionHolder
p325
(dp326
g4
g5
sg6
(lp327
(iGraphics.simplified_new
Scores
p328
(dp329
g10
I6
sg11
F0.5788806799701124
sg12
F965375.472
sg13
Nsba(iGraphics.simplified_new
Scores
p330
(dp331
g10
I7
sg11
F0.5971914509277518
sg12
F1159014.201
sg13
Nsba(iGraphics.simplified_new
Scores
p332
(dp333
g10
I9
sg11
F0.670667923219687
sg12
F1182815.4234
sg13
Nsba(iGraphics.simplified_new
Scores
p334
(dp335
g10
I6
sg11
F0.5451374710526352
sg12
F1134926.1769
sg13
Nsba(iGraphics.simplified_new
Scores
p336
(dp337
g10
I7
sg11
F0.8010644844290626
sg12
F1077251.2225
sg13
Nsba(iGraphics.simplified_new
Scores
p338
(dp339
g10
I6
sg11
F0.7796503270141157
sg12
F1193286.9378
sg13
Nsba(iGraphics.simplified_new
Scores
p340
(dp341
g10
I6
sg11
F0.631929803937963
sg12
F1101919.3557
sg13
Nsba(iGraphics.simplified_new
Scores
p342
(dp343
g10
I6
sg11
F0.7565258149233028
sg12
F1064251.4568
sg13
Nsba(iGraphics.simplified_new
Scores
p344
(dp345
g10
I6
sg11
F0.6699150025855689
sg12
F1177392.2845
sg13
Nsba(iGraphics.simplified_new
Scores
p346
(dp347
g10
I6
sg11
F0.8082496855611514
sg12
F1185954.7752
sg13
Nsba(iGraphics.simplified_new
Scores
p348
(dp349
g10
I6
sg11
F0.63067558492742
sg12
F1195628.9995
sg13
Nsba(iGraphics.simplified_new
Scores
p350
(dp351
g10
I6
sg11
F0.7986633663256517
sg12
F1189496.6758
sg13
Nsba(iGraphics.simplified_new
Scores
p352
(dp353
g10
I6
sg11
F0.8448848621072854
sg12
F986583.1012
sg13
Nsba(iGraphics.simplified_new
Scores
p354
(dp355
g10
I6
sg11
F0.7077498474144603
sg12
F1080191.9337
sg13
Nsba(iGraphics.simplified_new
Scores
p356
(dp357
g10
I6
sg11
F0.7098608153491673
sg12
F1130598.9119
sg13
Nsba(iGraphics.simplified_new
Scores
p358
(dp359
g10
I6
sg11
F0.7703035750313026
sg12
F1197421.6797
sg13
Nsba(iGraphics.simplified_new
Scores
p360
(dp361
g10
I6
sg11
F0.7586725840564675
sg12
F1200356.4974
sg13
Nsba(iGraphics.simplified_new
Scores
p362
(dp363
g10
I6
sg11
F0.668661418460249
sg12
F1085264.2379
sg13
Nsba(iGraphics.simplified_new
Scores
p364
(dp365
g10
I6
sg11
F0.7218287539303301
sg12
F1223368.8256
sg13
Nsba(iGraphics.simplified_new
Scores
p366
(dp367
g10
I6
sg11
F0.6908051334868486
sg12
F1198945.2195
sg13
Nsbasg52
S'SWAY5'
p368
sbsS'NSGAII_100'
p369
(iGraphics.simplified_new
SolutionHolder
p370
(dp371
g4
g5
sg6
(lp372
(iGraphics.simplified_new
Scores
p373
(dp374
g10
I100
sg11
F1.004570195728316
sg12
F1314175.0002
sg13
Nsba(iGraphics.simplified_new
Scores
p375
(dp376
g10
I100
sg11
F0.7304314975502239
sg12
F1297152.6719
sg13
Nsba(iGraphics.simplified_new
Scores
p377
(dp378
g10
I100
sg11
F0.78370955203455
sg12
F1325216.4003
sg13
Nsba(iGraphics.simplified_new
Scores
p379
(dp380
g10
I100
sg11
F0.7550677069528944
sg12
F1306928.9782
sg13
Nsba(iGraphics.simplified_new
Scores
p381
(dp382
g10
I100
sg11
F0.888775650961458
sg12
F1326768.1923
sg13
Nsba(iGraphics.simplified_new
Scores
p383
(dp384
g10
I100
sg11
F0.6997631971836861
sg12
F1301120.0075
sg13
Nsba(iGraphics.simplified_new
Scores
p385
(dp386
g10
I100
sg11
F0.7573745069600701
sg12
F1296777.4614
sg13
Nsba(iGraphics.simplified_new
Scores
p387
(dp388
g10
I100
sg11
F0.7326428785146955
sg12
F1309748.1971
sg13
Nsba(iGraphics.simplified_new
Scores
p389
(dp390
g10
I100
sg11
F0.8742999243765665
sg12
F1292373.4087
sg13
Nsba(iGraphics.simplified_new
Scores
p391
(dp392
g10
I100
sg11
F0.9580432032411165
sg12
F1319159.3556
sg13
Nsba(iGraphics.simplified_new
Scores
p393
(dp394
g10
I100
sg11
F0.7914404380149312
sg12
F1325211.4821
sg13
Nsba(iGraphics.simplified_new
Scores
p395
(dp396
g10
I100
sg11
F0.7738563881596299
sg12
F1313209.2868
sg13
Nsba(iGraphics.simplified_new
Scores
p397
(dp398
g10
I100
sg11
F0.8646519899805902
sg12
F1308433.4555
sg13
Nsba(iGraphics.simplified_new
Scores
p399
(dp400
g10
I100
sg11
F0.7856274906516326
sg12
F1288155.5668
sg13
Nsba(iGraphics.simplified_new
Scores
p401
(dp402
g10
I100
sg11
F0.7981467207889228
sg12
F1305750.1815
sg13
Nsba(iGraphics.simplified_new
Scores
p403
(dp404
g10
I100
sg11
F0.7379043320860166
sg12
F1312815.2026
sg13
Nsba(iGraphics.simplified_new
Scores
p405
(dp406
g10
I100
sg11
F0.6697417057783619
sg12
F1290545.6538
sg13
Nsba(iGraphics.simplified_new
Scores
p407
(dp408
g10
I100
sg11
F0.7995107100581542
sg12
F1308671.8025
sg13
Nsba(iGraphics.simplified_new
Scores
p409
(dp410
g10
I100
sg11
F0.7784855152102238
sg12
F1289688.4269
sg13
Nsba(iGraphics.simplified_new
Scores
p411
(dp412
g10
I100
sg11
F0.8021114261124178
sg12
F1309740.1119
sg13
Nsbasg52
S'NSGAII'
p413
sbs.