(dp0
S'SPEA2_100'
p1
(iGraphics.simplified_new
SolutionHolder
p2
(dp3
S'problem'
p4
S'xomo_flight'
p5
sS'repeats'
p6
(lp7
(iGraphics.simplified_new
Scores
p8
(dp9
S'pfs'
p10
I100
sS'spread'
p11
F0.5983887795097065
sS'hv'
p12
F145968073.105
sS'igd'
p13
Nsba(iGraphics.simplified_new
Scores
p14
(dp15
g10
I100
sg11
F0.6767435676831264
sg12
F143724069.1885
sg13
Nsba(iGraphics.simplified_new
Scores
p16
(dp17
g10
I100
sg11
F0.6772287881355138
sg12
F141815915.621
sg13
Nsba(iGraphics.simplified_new
Scores
p18
(dp19
g10
I100
sg11
F0.6685663708911557
sg12
F144639332.473
sg13
Nsba(iGraphics.simplified_new
Scores
p20
(dp21
g10
I100
sg11
F0.7864209943592391
sg12
F143411049.4156
sg13
Nsba(iGraphics.simplified_new
Scores
p22
(dp23
g10
I100
sg11
F0.70368519882205
sg12
F143091103.7318
sg13
Nsba(iGraphics.simplified_new
Scores
p24
(dp25
g10
I100
sg11
F0.6834286398848329
sg12
F144193254.1968
sg13
Nsba(iGraphics.simplified_new
Scores
p26
(dp27
g10
I100
sg11
F0.6492708785301539
sg12
F142996637.8548
sg13
Nsba(iGraphics.simplified_new
Scores
p28
(dp29
g10
I100
sg11
F0.6582581367559259
sg12
F142877673.5967
sg13
Nsba(iGraphics.simplified_new
Scores
p30
(dp31
g10
I100
sg11
F0.6729108453053718
sg12
F142360868.3143
sg13
Nsba(iGraphics.simplified_new
Scores
p32
(dp33
g10
I100
sg11
F0.6969421845904681
sg12
F142502781.4695
sg13
Nsba(iGraphics.simplified_new
Scores
p34
(dp35
g10
I100
sg11
F0.6761910280802189
sg12
F144885744.4334
sg13
Nsba(iGraphics.simplified_new
Scores
p36
(dp37
g10
I100
sg11
F0.7080869806346963
sg12
F143568518.2364
sg13
Nsba(iGraphics.simplified_new
Scores
p38
(dp39
g10
I100
sg11
F0.6776720770684574
sg12
F142418916.0824
sg13
Nsba(iGraphics.simplified_new
Scores
p40
(dp41
g10
I100
sg11
F0.6566369967975755
sg12
F143653770.9422
sg13
Nsba(iGraphics.simplified_new
Scores
p42
(dp43
g10
I100
sg11
F0.7505975120171889
sg12
F142812326.6885
sg13
Nsba(iGraphics.simplified_new
Scores
p44
(dp45
g10
I100
sg11
F0.644888906403618
sg12
F143980647.5512
sg13
Nsba(iGraphics.simplified_new
Scores
p46
(dp47
g10
I100
sg11
F0.6802512524753241
sg12
F142675857.791
sg13
Nsba(iGraphics.simplified_new
Scores
p48
(dp49
g10
I100
sg11
F0.7051789484810737
sg12
F144278609.1697
sg13
Nsba(iGraphics.simplified_new
Scores
p50
(dp51
g10
I100
sg11
F0.737680611813771
sg12
F142988532.7103
sg13
NsbasS'algorithm'
p52
S'SPEA2'
p53
sbsS'SWAY5_8192'
p54
(iGraphics.simplified_new
SolutionHolder
p55
(dp56
g4
g5
sg6
(lp57
(iGraphics.simplified_new
Scores
p58
(dp59
g10
I84
sg11
F0.4960655782869263
sg12
F132787888.3377
sg13
Nsba(iGraphics.simplified_new
Scores
p60
(dp61
g10
I63
sg11
F0.5235717009182006
sg12
F143775825.1529
sg13
Nsba(iGraphics.simplified_new
Scores
p62
(dp63
g10
I60
sg11
F0.4214862477865237
sg12
F131972435.4293
sg13
Nsba(iGraphics.simplified_new
Scores
p64
(dp65
g10
I47
sg11
F0.4488281546990059
sg12
F133112203.4671
sg13
Nsba(iGraphics.simplified_new
Scores
p66
(dp67
g10
I84
sg11
F0.39814410691441104
sg12
F137122716.6729
sg13
Nsba(iGraphics.simplified_new
Scores
p68
(dp69
g10
I48
sg11
F0.4517986917381063
sg12
F139069821.6805
sg13
Nsba(iGraphics.simplified_new
Scores
p70
(dp71
g10
I56
sg11
F0.4864708742679541
sg12
F127730751.8571
sg13
Nsba(iGraphics.simplified_new
Scores
p72
(dp73
g10
I63
sg11
F0.4703535538941594
sg12
F130041120.6917
sg13
Nsba(iGraphics.simplified_new
Scores
p74
(dp75
g10
I56
sg11
F0.44314836227416343
sg12
F130263830.7288
sg13
Nsba(iGraphics.simplified_new
Scores
p76
(dp77
g10
I90
sg11
F0.4392493242164029
sg12
F136674640.5512
sg13
Nsba(iGraphics.simplified_new
Scores
p78
(dp79
g10
I23
sg11
F0.4822234265134113
sg12
F119286212.1993
sg13
Nsba(iGraphics.simplified_new
Scores
p80
(dp81
g10
I36
sg11
F0.4364946753094143
sg12
F136416787.7795
sg13
Nsba(iGraphics.simplified_new
Scores
p82
(dp83
g10
I49
sg11
F0.45959838933562885
sg12
F128994811.796
sg13
Nsba(iGraphics.simplified_new
Scores
p84
(dp85
g10
I32
sg11
F0.4835721602944728
sg12
F130082027.6905
sg13
Nsba(iGraphics.simplified_new
Scores
p86
(dp87
g10
I31
sg11
F0.45716552290268186
sg12
F134298343.6634
sg13
Nsba(iGraphics.simplified_new
Scores
p88
(dp89
g10
I64
sg11
F0.3864416710861071
sg12
F131286868.1083
sg13
Nsba(iGraphics.simplified_new
Scores
p90
(dp91
g10
I64
sg11
F0.49294879704182903
sg12
F135345976.7932
sg13
Nsba(iGraphics.simplified_new
Scores
p92
(dp93
g10
I48
sg11
F0.4074740311983484
sg12
F136895961.6515
sg13
Nsba(iGraphics.simplified_new
Scores
p94
(dp95
g10
I64
sg11
F0.4199495550546887
sg12
F137662973.9593
sg13
Nsba(iGraphics.simplified_new
Scores
p96
(dp97
g10
I56
sg11
F0.4379455492925508
sg12
F130529853.4502
sg13
Nsbasg52
S'SWAY5'
p98
sbsS'SWAY5_1024'
p99
(iGraphics.simplified_new
SolutionHolder
p100
(dp101
g4
g5
sg6
(lp102
(iGraphics.simplified_new
Scores
p103
(dp104
g10
I31
sg11
F0.5230841602071384
sg12
F132075214.3487
sg13
Nsba(iGraphics.simplified_new
Scores
p105
(dp106
g10
I28
sg11
F0.5114760581453366
sg12
F130040177.9958
sg13
Nsba(iGraphics.simplified_new
Scores
p107
(dp108
g10
I16
sg11
F0.6019517152602648
sg12
F119605318.2595
sg13
Nsba(iGraphics.simplified_new
Scores
p109
(dp110
g10
I16
sg11
F0.44603843721274994
sg12
F130328764.0259
sg13
Nsba(iGraphics.simplified_new
Scores
p111
(dp112
g10
I16
sg11
F0.6591366298461891
sg12
F113142015.152
sg13
Nsba(iGraphics.simplified_new
Scores
p113
(dp114
g10
I28
sg11
F0.469879608193823
sg12
F131966281.2187
sg13
Nsba(iGraphics.simplified_new
Scores
p115
(dp116
g10
I28
sg11
F0.46949444716724276
sg12
F133270219.788
sg13
Nsba(iGraphics.simplified_new
Scores
p117
(dp118
g10
I21
sg11
F0.4749836837887849
sg12
F138130248.3391
sg13
Nsba(iGraphics.simplified_new
Scores
p119
(dp120
g10
I16
sg11
F0.5382052017721461
sg12
F120162517.1671
sg13
Nsba(iGraphics.simplified_new
Scores
p121
(dp122
g10
I16
sg11
F0.48206528611657207
sg12
F113456117.0229
sg13
Nsba(iGraphics.simplified_new
Scores
p123
(dp124
g10
I28
sg11
F0.47081412289901703
sg12
F133345118.1378
sg13
Nsba(iGraphics.simplified_new
Scores
p125
(dp126
g10
I18
sg11
F0.5226525135654135
sg12
F117549049.7677
sg13
Nsba(iGraphics.simplified_new
Scores
p127
(dp128
g10
I16
sg11
F0.7130571603970676
sg12
F125652645.6537
sg13
Nsba(iGraphics.simplified_new
Scores
p129
(dp130
g10
I16
sg11
F0.5829850451836709
sg12
F137206912.1026
sg13
Nsba(iGraphics.simplified_new
Scores
p131
(dp132
g10
I31
sg11
F0.4050397021601889
sg12
F128609104.3337
sg13
Nsba(iGraphics.simplified_new
Scores
p133
(dp134
g10
I16
sg11
F0.6909731866827984
sg12
F127464138.5375
sg13
Nsba(iGraphics.simplified_new
Scores
p135
(dp136
g10
I16
sg11
F0.5436075686488261
sg12
F134988593.4419
sg13
Nsba(iGraphics.simplified_new
Scores
p137
(dp138
g10
I28
sg11
F0.5011999672602852
sg12
F127199378.8431
sg13
Nsba(iGraphics.simplified_new
Scores
p139
(dp140
g10
I28
sg11
F0.543680780526113
sg12
F130147842.1057
sg13
Nsba(iGraphics.simplified_new
Scores
p141
(dp142
g10
I16
sg11
F0.5626608752875305
sg12
F124487660.1728
sg13
Nsbasg52
S'SWAY5'
p143
sbsS'SWAY5_2048'
p144
(iGraphics.simplified_new
SolutionHolder
p145
(dp146
g4
g5
sg6
(lp147
(iGraphics.simplified_new
Scores
p148
(dp149
g10
I24
sg11
F0.44819202480977255
sg12
F129170864.9411
sg13
Nsba(iGraphics.simplified_new
Scores
p150
(dp151
g10
I24
sg11
F0.5189265414364728
sg12
F122847794.1231
sg13
Nsba(iGraphics.simplified_new
Scores
p152
(dp153
g10
I32
sg11
F0.5702243814617881
sg12
F138047618.8059
sg13
Nsba(iGraphics.simplified_new
Scores
p154
(dp155
g10
I27
sg11
F0.5266058985388382
sg12
F124156060.1526
sg13
Nsba(iGraphics.simplified_new
Scores
p156
(dp157
g10
I24
sg11
F0.5261719629504785
sg12
F126401496.8534
sg13
Nsba(iGraphics.simplified_new
Scores
p158
(dp159
g10
I28
sg11
F0.5669905686606962
sg12
F130789739.4874
sg13
Nsba(iGraphics.simplified_new
Scores
p160
(dp161
g10
I24
sg11
F0.5139714265515017
sg12
F131689086.1891
sg13
Nsba(iGraphics.simplified_new
Scores
p162
(dp163
g10
I31
sg11
F0.46668207462689965
sg12
F126941099.2175
sg13
Nsba(iGraphics.simplified_new
Scores
p164
(dp165
g10
I42
sg11
F0.46752882452218847
sg12
F123448610.348
sg13
Nsba(iGraphics.simplified_new
Scores
p166
(dp167
g10
I30
sg11
F0.5118812399160799
sg12
F116775945.4808
sg13
Nsba(iGraphics.simplified_new
Scores
p168
(dp169
g10
I39
sg11
F0.5125218287759608
sg12
F127605664.4058
sg13
Nsba(iGraphics.simplified_new
Scores
p170
(dp171
g10
I31
sg11
F0.4466823836987699
sg12
F119990959.7894
sg13
Nsba(iGraphics.simplified_new
Scores
p172
(dp173
g10
I24
sg11
F0.5508538803739366
sg12
F130405447.0297
sg13
Nsba(iGraphics.simplified_new
Scores
p174
(dp175
g10
I31
sg11
F0.4038208416394054
sg12
F118214183.2001
sg13
Nsba(iGraphics.simplified_new
Scores
p176
(dp177
g10
I28
sg11
F0.3592823253656882
sg12
F123231633.4704
sg13
Nsba(iGraphics.simplified_new
Scores
p178
(dp179
g10
I21
sg11
F0.42741944708657226
sg12
F119800718.2815
sg13
Nsba(iGraphics.simplified_new
Scores
p180
(dp181
g10
I24
sg11
F0.4213267302951084
sg12
F132740519.9491
sg13
Nsba(iGraphics.simplified_new
Scores
p182
(dp183
g10
I24
sg11
F0.36677034899783195
sg12
F124412883.1292
sg13
Nsba(iGraphics.simplified_new
Scores
p184
(dp185
g10
I31
sg11
F0.5467475744033486
sg12
F136522385.9557
sg13
Nsba(iGraphics.simplified_new
Scores
p186
(dp187
g10
I31
sg11
F0.5037809400222132
sg12
F128424678.4768
sg13
Nsbasg52
S'SWAY5'
p188
sbsS'SWAY5_10000'
p189
(iGraphics.simplified_new
SolutionHolder
p190
(dp191
g4
g5
sg6
(lp192
(iGraphics.simplified_new
Scores
p193
(dp194
g10
I78
sg11
F0.4034203853314555
sg12
F139986407.6575
sg13
Nsba(iGraphics.simplified_new
Scores
p195
(dp196
g10
I78
sg11
F0.4780137512090681
sg12
F133466148.6918
sg13
Nsba(iGraphics.simplified_new
Scores
p197
(dp198
g10
I58
sg11
F0.4486680486884358
sg12
F125796859.1758
sg13
Nsba(iGraphics.simplified_new
Scores
p199
(dp200
g10
I68
sg11
F0.43509774301010407
sg12
F131280082.2303
sg13
Nsba(iGraphics.simplified_new
Scores
p201
(dp202
g10
I39
sg11
F0.474266916110167
sg12
F131636058.1872
sg13
Nsba(iGraphics.simplified_new
Scores
p203
(dp204
g10
I44
sg11
F0.4383289151122352
sg12
F142476028.113
sg13
Nsba(iGraphics.simplified_new
Scores
p205
(dp206
g10
I78
sg11
F0.5227788703310318
sg12
F131975599.806
sg13
Nsba(iGraphics.simplified_new
Scores
p207
(dp208
g10
I58
sg11
F0.4419584859422689
sg12
F141396238.0013
sg13
Nsba(iGraphics.simplified_new
Scores
p209
(dp210
g10
I32
sg11
F0.48315393026627745
sg12
F127046036.9213
sg13
Nsba(iGraphics.simplified_new
Scores
p211
(dp212
g10
I34
sg11
F0.5601840758925654
sg12
F121357626.913
sg13
Nsba(iGraphics.simplified_new
Scores
p213
(dp214
g10
I88
sg11
F0.5076562740600165
sg12
F136656834.5942
sg13
Nsba(iGraphics.simplified_new
Scores
p215
(dp216
g10
I88
sg11
F0.4335130824848289
sg12
F137044658.7534
sg13
Nsba(iGraphics.simplified_new
Scores
p217
(dp218
g10
I78
sg11
F0.4271932235591713
sg12
F134896748.9156
sg13
Nsba(iGraphics.simplified_new
Scores
p219
(dp220
g10
I51
sg11
F0.4698643540332192
sg12
F129103421.1156
sg13
Nsba(iGraphics.simplified_new
Scores
p221
(dp222
g10
I58
sg11
F0.4884619493518144
sg12
F133527064.1111
sg13
Nsba(iGraphics.simplified_new
Scores
p223
(dp224
g10
I27
sg11
F0.40612883390237503
sg12
F133801016.0047
sg13
Nsba(iGraphics.simplified_new
Scores
p225
(dp226
g10
I66
sg11
F0.44638962194563564
sg12
F134067988.8604
sg13
Nsba(iGraphics.simplified_new
Scores
p227
(dp228
g10
I51
sg11
F0.4785173619515874
sg12
F132313460.6237
sg13
Nsba(iGraphics.simplified_new
Scores
p229
(dp230
g10
I68
sg11
F0.41811652364687707
sg12
F134770051.1105
sg13
Nsba(iGraphics.simplified_new
Scores
p231
(dp232
g10
I78
sg11
F0.44673546835058503
sg12
F138135474.8677
sg13
Nsbasg52
S'SWAY5'
p233
sbsS'SWAY5_4096'
p234
(iGraphics.simplified_new
SolutionHolder
p235
(dp236
g4
g5
sg6
(lp237
(iGraphics.simplified_new
Scores
p238
(dp239
g10
I33
sg11
F0.49616441050225407
sg12
F131952036.9057
sg13
Nsba(iGraphics.simplified_new
Scores
p240
(dp241
g10
I16
sg11
F0.4510631886811084
sg12
F128789787.836
sg13
Nsba(iGraphics.simplified_new
Scores
p242
(dp243
g10
I32
sg11
F0.4279149470691313
sg12
F127341971.5124
sg13
Nsba(iGraphics.simplified_new
Scores
p244
(dp245
g10
I39
sg11
F0.5302876888484358
sg12
F129660162.3474
sg13
Nsba(iGraphics.simplified_new
Scores
p246
(dp247
g10
I24
sg11
F0.5406203158969135
sg12
F119236549.287
sg13
Nsba(iGraphics.simplified_new
Scores
p248
(dp249
g10
I63
sg11
F0.45790062616232
sg12
F130116608.5468
sg13
Nsba(iGraphics.simplified_new
Scores
p250
(dp251
g10
I42
sg11
F0.4852660779824714
sg12
F129386921.0904
sg13
Nsba(iGraphics.simplified_new
Scores
p252
(dp253
g10
I32
sg11
F0.5024340084207295
sg12
F130326907.753
sg13
Nsba(iGraphics.simplified_new
Scores
p254
(dp255
g10
I32
sg11
F0.507122170170597
sg12
F134710762.7121
sg13
Nsba(iGraphics.simplified_new
Scores
p256
(dp257
g10
I36
sg11
F0.5101648858265172
sg12
F134573966.2365
sg13
Nsba(iGraphics.simplified_new
Scores
p258
(dp259
g10
I48
sg11
F0.434481797200243
sg12
F132806365.957
sg13
Nsba(iGraphics.simplified_new
Scores
p260
(dp261
g10
I20
sg11
F0.44177231322896854
sg12
F128904249.2488
sg13
Nsba(iGraphics.simplified_new
Scores
p262
(dp263
g10
I32
sg11
F0.5867333131330292
sg12
F126005860.6929
sg13
Nsba(iGraphics.simplified_new
Scores
p264
(dp265
g10
I42
sg11
F0.5079494798854628
sg12
F130893090.6108
sg13
Nsba(iGraphics.simplified_new
Scores
p266
(dp267
g10
I32
sg11
F0.49239486893740114
sg12
F127823756.0407
sg13
Nsba(iGraphics.simplified_new
Scores
p268
(dp269
g10
I53
sg11
F0.4490062243368545
sg12
F132772622.9443
sg13
Nsba(iGraphics.simplified_new
Scores
p270
(dp271
g10
I42
sg11
F0.5073932224692425
sg12
F133099450.2852
sg13
Nsba(iGraphics.simplified_new
Scores
p272
(dp273
g10
I48
sg11
F0.5386132838638952
sg12
F134962390.36
sg13
Nsba(iGraphics.simplified_new
Scores
p274
(dp275
g10
I48
sg11
F0.5533801365975868
sg12
F138591698.5813
sg13
Nsba(iGraphics.simplified_new
Scores
p276
(dp277
g10
I56
sg11
F0.5223999672162843
sg12
F133077774.1925
sg13
Nsbasg52
S'SWAY5'
p278
sbsS'SWAY5_512'
p279
(iGraphics.simplified_new
SolutionHolder
p280
(dp281
g4
g5
sg6
(lp282
(iGraphics.simplified_new
Scores
p283
(dp284
g10
I16
sg11
F0.4922003524485174
sg12
F127216208.8321
sg13
Nsba(iGraphics.simplified_new
Scores
p285
(dp286
g10
I16
sg11
F0.44374164024915874
sg12
F118601586.7478
sg13
Nsba(iGraphics.simplified_new
Scores
p287
(dp288
g10
I16
sg11
F0.3471775493626329
sg12
F128996360.8876
sg13
Nsba(iGraphics.simplified_new
Scores
p289
(dp290
g10
I16
sg11
F0.6072334478373834
sg12
F130558990.639
sg13
Nsba(iGraphics.simplified_new
Scores
p291
(dp292
g10
I13
sg11
F0.5159735975918044
sg12
F122509159.2707
sg13
Nsba(iGraphics.simplified_new
Scores
p293
(dp294
g10
I16
sg11
F0.5166132153706391
sg12
F116807291.4629
sg13
Nsba(iGraphics.simplified_new
Scores
p295
(dp296
g10
I14
sg11
F0.5379922123112103
sg12
F126377127.1001
sg13
Nsba(iGraphics.simplified_new
Scores
p297
(dp298
g10
I20
sg11
F0.4400545227607539
sg12
F125888355.8916
sg13
Nsba(iGraphics.simplified_new
Scores
p299
(dp300
g10
I12
sg11
F0.4957323117343336
sg12
F131987172.9008
sg13
Nsba(iGraphics.simplified_new
Scores
p301
(dp302
g10
I12
sg11
F0.4749768826299052
sg12
F115807447.2896
sg13
Nsba(iGraphics.simplified_new
Scores
p303
(dp304
g10
I16
sg11
F0.5775092929873386
sg12
F130933179.6723
sg13
Nsba(iGraphics.simplified_new
Scores
p305
(dp306
g10
I16
sg11
F0.6757869819096822
sg12
F128209816.8181
sg13
Nsba(iGraphics.simplified_new
Scores
p307
(dp308
g10
I15
sg11
F0.6820167444071149
sg12
F125443002.9265
sg13
Nsba(iGraphics.simplified_new
Scores
p309
(dp310
g10
I14
sg11
F0.5258158313774713
sg12
F127611092.0115
sg13
Nsba(iGraphics.simplified_new
Scores
p311
(dp312
g10
I12
sg11
F0.5479118729045647
sg12
F119926047.2005
sg13
Nsba(iGraphics.simplified_new
Scores
p313
(dp314
g10
I16
sg11
F0.506617120047349
sg12
F125634094.3713
sg13
Nsba(iGraphics.simplified_new
Scores
p315
(dp316
g10
I15
sg11
F0.6699686068406797
sg12
F120949348.9096
sg13
Nsba(iGraphics.simplified_new
Scores
p317
(dp318
g10
I15
sg11
F0.5597020909501996
sg12
F123343919.5489
sg13
Nsba(iGraphics.simplified_new
Scores
p319
(dp320
g10
I16
sg11
F0.5149014650917655
sg12
F126787761.0151
sg13
Nsba(iGraphics.simplified_new
Scores
p321
(dp322
g10
I16
sg11
F0.5229737121988307
sg12
F117739115.6533
sg13
Nsbasg52
S'SWAY5'
p323
sbsS'SWAY5_100'
p324
(iGraphics.simplified_new
SolutionHolder
p325
(dp326
g4
g5
sg6
(lp327
(iGraphics.simplified_new
Scores
p328
(dp329
g10
I6
sg11
F0.600021648034446
sg12
F92091743.8087
sg13
Nsba(iGraphics.simplified_new
Scores
p330
(dp331
g10
I6
sg11
F0.7524364553853625
sg12
F85524172.275
sg13
Nsba(iGraphics.simplified_new
Scores
p332
(dp333
g10
I9
sg11
F0.6366204128575126
sg12
F140469222.8155
sg13
Nsba(iGraphics.simplified_new
Scores
p334
(dp335
g10
I6
sg11
F0.730159408979565
sg12
F100253517.2626
sg13
Nsba(iGraphics.simplified_new
Scores
p336
(dp337
g10
I5
sg11
F0.751587255675921
sg12
F90700363.3075
sg13
Nsba(iGraphics.simplified_new
Scores
p338
(dp339
g10
I6
sg11
F0.625286678539108
sg12
F137485963.756
sg13
Nsba(iGraphics.simplified_new
Scores
p340
(dp341
g10
I7
sg11
F0.5498543649716635
sg12
F117676773.6657
sg13
Nsba(iGraphics.simplified_new
Scores
p342
(dp343
g10
I9
sg11
F0.7143774803295468
sg12
F116124289.7305
sg13
Nsba(iGraphics.simplified_new
Scores
p344
(dp345
g10
I6
sg11
F0.5777169154208108
sg12
F105951064.98
sg13
Nsba(iGraphics.simplified_new
Scores
p346
(dp347
g10
I6
sg11
F0.6020505352029973
sg12
F121570504.678
sg13
Nsba(iGraphics.simplified_new
Scores
p348
(dp349
g10
I6
sg11
F0.4993012584247917
sg12
F107518199.7725
sg13
Nsba(iGraphics.simplified_new
Scores
p350
(dp351
g10
I6
sg11
F0.8145069448834688
sg12
F112092765.5566
sg13
Nsba(iGraphics.simplified_new
Scores
p352
(dp353
g10
I6
sg11
F0.5270682495204265
sg12
F122855976.4899
sg13
Nsba(iGraphics.simplified_new
Scores
p354
(dp355
g10
I6
sg11
F0.5631614866527571
sg12
F119531910.3825
sg13
Nsba(iGraphics.simplified_new
Scores
p356
(dp357
g10
I5
sg11
F0.7625246082666367
sg12
F123897478.4005
sg13
Nsba(iGraphics.simplified_new
Scores
p358
(dp359
g10
I7
sg11
F0.7150320960540331
sg12
F112126627.8315
sg13
Nsba(iGraphics.simplified_new
Scores
p360
(dp361
g10
I9
sg11
F0.4564331841906731
sg12
F117737968.2216
sg13
Nsba(iGraphics.simplified_new
Scores
p362
(dp363
g10
I9
sg11
F0.6158357386822008
sg12
F113630719.2714
sg13
Nsba(iGraphics.simplified_new
Scores
p364
(dp365
g10
I6
sg11
F0.7751540502496973
sg12
F114243176.0435
sg13
Nsba(iGraphics.simplified_new
Scores
p366
(dp367
g10
I7
sg11
F0.6066703619888096
sg12
F110854577.5223
sg13
Nsbasg52
S'SWAY5'
p368
sbsS'NSGAII_100'
p369
(iGraphics.simplified_new
SolutionHolder
p370
(dp371
g4
g5
sg6
(lp372
(iGraphics.simplified_new
Scores
p373
(dp374
g10
I100
sg11
F0.7643228675401194
sg12
F144239518.1923
sg13
Nsba(iGraphics.simplified_new
Scores
p375
(dp376
g10
I100
sg11
F0.6688348401835956
sg12
F144884351.854
sg13
Nsba(iGraphics.simplified_new
Scores
p377
(dp378
g10
I100
sg11
F0.7217806617886112
sg12
F141028493.0042
sg13
Nsba(iGraphics.simplified_new
Scores
p379
(dp380
g10
I100
sg11
F0.7438134780276933
sg12
F144677130.3446
sg13
Nsba(iGraphics.simplified_new
Scores
p381
(dp382
g10
I100
sg11
F0.7517750544098791
sg12
F142886572.9761
sg13
Nsba(iGraphics.simplified_new
Scores
p383
(dp384
g10
I100
sg11
F0.721209920677177
sg12
F143552347.4511
sg13
Nsba(iGraphics.simplified_new
Scores
p385
(dp386
g10
I100
sg11
F0.7221805304829
sg12
F141874441.8258
sg13
Nsba(iGraphics.simplified_new
Scores
p387
(dp388
g10
I100
sg11
F0.7937502029863429
sg12
F145873395.3844
sg13
Nsba(iGraphics.simplified_new
Scores
p389
(dp390
g10
I100
sg11
F0.794619126424813
sg12
F143220005.1275
sg13
Nsba(iGraphics.simplified_new
Scores
p391
(dp392
g10
I100
sg11
F0.7871883490505023
sg12
F141517253.694
sg13
Nsba(iGraphics.simplified_new
Scores
p393
(dp394
g10
I100
sg11
F0.7621555576640553
sg12
F143724388.063
sg13
Nsba(iGraphics.simplified_new
Scores
p395
(dp396
g10
I100
sg11
F0.7089819850893987
sg12
F143025976.3577
sg13
Nsba(iGraphics.simplified_new
Scores
p397
(dp398
g10
I100
sg11
F0.6466811137697788
sg12
F144902083.5699
sg13
Nsba(iGraphics.simplified_new
Scores
p399
(dp400
g10
I100
sg11
F0.68230118473161
sg12
F143230978.3138
sg13
Nsba(iGraphics.simplified_new
Scores
p401
(dp402
g10
I100
sg11
F0.5762984645030123
sg12
F141182561.0554
sg13
Nsba(iGraphics.simplified_new
Scores
p403
(dp404
g10
I100
sg11
F0.6701062432075361
sg12
F144105729.9609
sg13
Nsba(iGraphics.simplified_new
Scores
p405
(dp406
g10
I100
sg11
F0.7500705911504209
sg12
F142818090.8171
sg13
Nsba(iGraphics.simplified_new
Scores
p407
(dp408
g10
I100
sg11
F0.7900260917202546
sg12
F142059698.0302
sg13
Nsba(iGraphics.simplified_new
Scores
p409
(dp410
g10
I100
sg11
F0.6485182241432943
sg12
F143913851.8456
sg13
Nsba(iGraphics.simplified_new
Scores
p411
(dp412
g10
I100
sg11
F0.801321233653335
sg12
F145087759.5257
sg13
Nsbasg52
S'NSGAII'
p413
sbs.