(dp0
S'SPEA2_100'
p1
(iGraphics.simplified_new
SolutionHolder
p2
(dp3
S'problem'
p4
S'xomo_ground'
p5
sS'repeats'
p6
(lp7
(iGraphics.simplified_new
Scores
p8
(dp9
S'pfs'
p10
I100
sS'spread'
p11
F0.6932552708833125
sS'hv'
p12
F143556992.9106
sS'igd'
p13
Nsba(iGraphics.simplified_new
Scores
p14
(dp15
g10
I100
sg11
F0.7948924926742047
sg12
F142949878.5339
sg13
Nsba(iGraphics.simplified_new
Scores
p16
(dp17
g10
I100
sg11
F0.6802709354630397
sg12
F144682193.956
sg13
Nsba(iGraphics.simplified_new
Scores
p18
(dp19
g10
I100
sg11
F0.7160766301777269
sg12
F145048984.9484
sg13
Nsba(iGraphics.simplified_new
Scores
p20
(dp21
g10
I100
sg11
F0.7408890179256766
sg12
F143716162.0685
sg13
Nsba(iGraphics.simplified_new
Scores
p22
(dp23
g10
I100
sg11
F0.7411025102680584
sg12
F143141231.5104
sg13
Nsba(iGraphics.simplified_new
Scores
p24
(dp25
g10
I100
sg11
F0.6464448070202378
sg12
F141938733.4102
sg13
Nsba(iGraphics.simplified_new
Scores
p26
(dp27
g10
I100
sg11
F0.7015444936252404
sg12
F145037166.9748
sg13
Nsba(iGraphics.simplified_new
Scores
p28
(dp29
g10
I100
sg11
F0.677922406251797
sg12
F143248675.1359
sg13
Nsba(iGraphics.simplified_new
Scores
p30
(dp31
g10
I100
sg11
F0.6788305958956264
sg12
F144897106.2459
sg13
Nsba(iGraphics.simplified_new
Scores
p32
(dp33
g10
I100
sg11
F0.7810862381070032
sg12
F145354226.7911
sg13
Nsba(iGraphics.simplified_new
Scores
p34
(dp35
g10
I100
sg11
F0.7168488539008465
sg12
F145872418.0614
sg13
Nsba(iGraphics.simplified_new
Scores
p36
(dp37
g10
I100
sg11
F0.7364655551457526
sg12
F144093352.6722
sg13
Nsba(iGraphics.simplified_new
Scores
p38
(dp39
g10
I100
sg11
F0.7183190313395409
sg12
F142941062.7965
sg13
Nsba(iGraphics.simplified_new
Scores
p40
(dp41
g10
I100
sg11
F0.6726714335844792
sg12
F143482368.8589
sg13
Nsba(iGraphics.simplified_new
Scores
p42
(dp43
g10
I100
sg11
F0.7142318311346059
sg12
F144914594.9557
sg13
Nsba(iGraphics.simplified_new
Scores
p44
(dp45
g10
I100
sg11
F0.6732920715648951
sg12
F143852368.7017
sg13
Nsba(iGraphics.simplified_new
Scores
p46
(dp47
g10
I100
sg11
F0.676769258181369
sg12
F143245650.8885
sg13
Nsba(iGraphics.simplified_new
Scores
p48
(dp49
g10
I100
sg11
F0.7163261663763686
sg12
F142664706.127
sg13
Nsba(iGraphics.simplified_new
Scores
p50
(dp51
g10
I100
sg11
F0.7588768429541126
sg12
F140933334.1316
sg13
NsbasS'algorithm'
p52
S'SPEA2'
p53
sbsS'SWAY5_8192'
p54
(iGraphics.simplified_new
SolutionHolder
p55
(dp56
g4
g5
sg6
(lp57
(iGraphics.simplified_new
Scores
p58
(dp59
g10
I23
sg11
F0.5828742417850165
sg12
F126850973.5381
sg13
Nsba(iGraphics.simplified_new
Scores
p60
(dp61
g10
I48
sg11
F0.4993373752073342
sg12
F128057660.9498
sg13
Nsba(iGraphics.simplified_new
Scores
p62
(dp63
g10
I56
sg11
F0.4783649890962355
sg12
F136288242.5007
sg13
Nsba(iGraphics.simplified_new
Scores
p64
(dp65
g10
I48
sg11
F0.4862574624625641
sg12
F125137720.1178
sg13
Nsba(iGraphics.simplified_new
Scores
p66
(dp67
g10
I72
sg11
F0.4667539822673615
sg12
F135120612.5666
sg13
Nsba(iGraphics.simplified_new
Scores
p68
(dp69
g10
I68
sg11
F0.49211365187378076
sg12
F123733722.3501
sg13
Nsba(iGraphics.simplified_new
Scores
p70
(dp71
g10
I78
sg11
F0.5076278135449883
sg12
F142383171.9318
sg13
Nsba(iGraphics.simplified_new
Scores
p72
(dp73
g10
I60
sg11
F0.4555138659292205
sg12
F131343099.4144
sg13
Nsba(iGraphics.simplified_new
Scores
p74
(dp75
g10
I56
sg11
F0.46641714715544985
sg12
F123313083.1376
sg13
Nsba(iGraphics.simplified_new
Scores
p76
(dp77
g10
I72
sg11
F0.4190102761902662
sg12
F130220595.599
sg13
Nsba(iGraphics.simplified_new
Scores
p78
(dp79
g10
I74
sg11
F0.45343474236275105
sg12
F135855162.1604
sg13
Nsba(iGraphics.simplified_new
Scores
p80
(dp81
g10
I72
sg11
F0.48253174663840886
sg12
F132437026.6401
sg13
Nsba(iGraphics.simplified_new
Scores
p82
(dp83
g10
I63
sg11
F0.5206133960920227
sg12
F132601967.8913
sg13
Nsba(iGraphics.simplified_new
Scores
p84
(dp85
g10
I28
sg11
F0.4745706674887362
sg12
F121407169.8374
sg13
Nsba(iGraphics.simplified_new
Scores
p86
(dp87
g10
I48
sg11
F0.3856846776425064
sg12
F139464538.8641
sg13
Nsba(iGraphics.simplified_new
Scores
p88
(dp89
g10
I74
sg11
F0.5110022079456059
sg12
F137294418.6081
sg13
Nsba(iGraphics.simplified_new
Scores
p90
(dp91
g10
I32
sg11
F0.5270447124419594
sg12
F122937103.6969
sg13
Nsba(iGraphics.simplified_new
Scores
p92
(dp93
g10
I81
sg11
F0.48068198694172265
sg12
F141245146.6322
sg13
Nsba(iGraphics.simplified_new
Scores
p94
(dp95
g10
I46
sg11
F0.4919188748237259
sg12
F134159909.8268
sg13
Nsba(iGraphics.simplified_new
Scores
p96
(dp97
g10
I48
sg11
F0.45518459189091953
sg12
F135779196.253
sg13
Nsbasg52
S'SWAY5'
p98
sbsS'SWAY5_1024'
p99
(iGraphics.simplified_new
SolutionHolder
p100
(dp101
g4
g5
sg6
(lp102
(iGraphics.simplified_new
Scores
p103
(dp104
g10
I24
sg11
F0.4313330691697733
sg12
F130669285.6844
sg13
Nsba(iGraphics.simplified_new
Scores
p105
(dp106
g10
I16
sg11
F0.523080710050779
sg12
F114724832.2292
sg13
Nsba(iGraphics.simplified_new
Scores
p107
(dp108
g10
I31
sg11
F0.49510536750482503
sg12
F129359221.8501
sg13
Nsba(iGraphics.simplified_new
Scores
p109
(dp110
g10
I16
sg11
F0.6992651256503964
sg12
F116059713.5238
sg13
Nsba(iGraphics.simplified_new
Scores
p111
(dp112
g10
I24
sg11
F0.5586666586677606
sg12
F122830322.2235
sg13
Nsba(iGraphics.simplified_new
Scores
p113
(dp114
g10
I31
sg11
F0.49212978850707945
sg12
F130566047.5412
sg13
Nsba(iGraphics.simplified_new
Scores
p115
(dp116
g10
I24
sg11
F0.5503111595044194
sg12
F122259907.3129
sg13
Nsba(iGraphics.simplified_new
Scores
p117
(dp118
g10
I16
sg11
F0.5200022595709689
sg12
F126631829.2243
sg13
Nsba(iGraphics.simplified_new
Scores
p119
(dp120
g10
I24
sg11
F0.5916522948761014
sg12
F120243653.599
sg13
Nsba(iGraphics.simplified_new
Scores
p121
(dp122
g10
I28
sg11
F0.521271894085814
sg12
F124282391.5051
sg13
Nsba(iGraphics.simplified_new
Scores
p123
(dp124
g10
I24
sg11
F0.4919129940297472
sg12
F122550296.47
sg13
Nsba(iGraphics.simplified_new
Scores
p125
(dp126
g10
I16
sg11
F0.4978479404381923
sg12
F123101056.9598
sg13
Nsba(iGraphics.simplified_new
Scores
p127
(dp128
g10
I24
sg11
F0.5383839227209164
sg12
F129650731.5282
sg13
Nsba(iGraphics.simplified_new
Scores
p129
(dp130
g10
I18
sg11
F0.5740581679635761
sg12
F120718654.606
sg13
Nsba(iGraphics.simplified_new
Scores
p131
(dp132
g10
I16
sg11
F0.5315034164507132
sg12
F118171068.7727
sg13
Nsba(iGraphics.simplified_new
Scores
p133
(dp134
g10
I24
sg11
F0.5002079541114359
sg12
F137022057.4928
sg13
Nsba(iGraphics.simplified_new
Scores
p135
(dp136
g10
I18
sg11
F0.454985556487687
sg12
F138145143.9425
sg13
Nsba(iGraphics.simplified_new
Scores
p137
(dp138
g10
I18
sg11
F0.5446408454680881
sg12
F124767095.2442
sg13
Nsba(iGraphics.simplified_new
Scores
p139
(dp140
g10
I28
sg11
F0.6487428159921222
sg12
F131112420.4783
sg13
Nsba(iGraphics.simplified_new
Scores
p141
(dp142
g10
I24
sg11
F0.4741881299216261
sg12
F135893014.0818
sg13
Nsbasg52
S'SWAY5'
p143
sbsS'SWAY5_2048'
p144
(iGraphics.simplified_new
SolutionHolder
p145
(dp146
g4
g5
sg6
(lp147
(iGraphics.simplified_new
Scores
p148
(dp149
g10
I27
sg11
F0.5621855756439702
sg12
F113326649.356
sg13
Nsba(iGraphics.simplified_new
Scores
p150
(dp151
g10
I36
sg11
F0.5676164313363367
sg12
F129654329.9243
sg13
Nsba(iGraphics.simplified_new
Scores
p152
(dp153
g10
I30
sg11
F0.4709714091442821
sg12
F124622860.5212
sg13
Nsba(iGraphics.simplified_new
Scores
p154
(dp155
g10
I32
sg11
F0.53628868459133
sg12
F132637836.2245
sg13
Nsba(iGraphics.simplified_new
Scores
p156
(dp157
g10
I31
sg11
F0.6236220762633954
sg12
F131841678.9049
sg13
Nsba(iGraphics.simplified_new
Scores
p158
(dp159
g10
I34
sg11
F0.5285906735693003
sg12
F130081323.648
sg13
Nsba(iGraphics.simplified_new
Scores
p160
(dp161
g10
I24
sg11
F0.5302016993149242
sg12
F112389081.3022
sg13
Nsba(iGraphics.simplified_new
Scores
p162
(dp163
g10
I24
sg11
F0.5541728470790295
sg12
F131634224.8639
sg13
Nsba(iGraphics.simplified_new
Scores
p164
(dp165
g10
I24
sg11
F0.5455452442823806
sg12
F138348309.7119
sg13
Nsba(iGraphics.simplified_new
Scores
p166
(dp167
g10
I31
sg11
F0.48846208221824033
sg12
F137320816.2047
sg13
Nsba(iGraphics.simplified_new
Scores
p168
(dp169
g10
I21
sg11
F0.5697836769958513
sg12
F134276471.3673
sg13
Nsba(iGraphics.simplified_new
Scores
p170
(dp171
g10
I24
sg11
F0.6292282377649773
sg12
F128048494.59
sg13
Nsba(iGraphics.simplified_new
Scores
p172
(dp173
g10
I32
sg11
F0.40746929217078676
sg12
F121995082.5457
sg13
Nsba(iGraphics.simplified_new
Scores
p174
(dp175
g10
I24
sg11
F0.4261608138146689
sg12
F119930780.4702
sg13
Nsba(iGraphics.simplified_new
Scores
p176
(dp177
g10
I32
sg11
F0.499684666137904
sg12
F127547102.2695
sg13
Nsba(iGraphics.simplified_new
Scores
p178
(dp179
g10
I24
sg11
F0.47168409492092506
sg12
F114505998.0843
sg13
Nsba(iGraphics.simplified_new
Scores
p180
(dp181
g10
I36
sg11
F0.5498204464332864
sg12
F126413259.9824
sg13
Nsba(iGraphics.simplified_new
Scores
p182
(dp183
g10
I30
sg11
F0.4619309368075272
sg12
F129270483.7236
sg13
Nsba(iGraphics.simplified_new
Scores
p184
(dp185
g10
I31
sg11
F0.5073203560347183
sg12
F134070585.4446
sg13
Nsba(iGraphics.simplified_new
Scores
p186
(dp187
g10
I31
sg11
F0.47357081600198125
sg12
F125567444.3134
sg13
Nsbasg52
S'SWAY5'
p188
sbsS'SWAY5_10000'
p189
(iGraphics.simplified_new
SolutionHolder
p190
(dp191
g4
g5
sg6
(lp192
(iGraphics.simplified_new
Scores
p193
(dp194
g10
I78
sg11
F0.4424254359168189
sg12
F132704708.0615
sg13
Nsba(iGraphics.simplified_new
Scores
p195
(dp196
g10
I59
sg11
F0.4546800797896251
sg12
F138631006.2787
sg13
Nsba(iGraphics.simplified_new
Scores
p197
(dp198
g10
I77
sg11
F0.457622572262373
sg12
F133247103.0776
sg13
Nsba(iGraphics.simplified_new
Scores
p199
(dp200
g10
I68
sg11
F0.41506777548544704
sg12
F134075840.5894
sg13
Nsba(iGraphics.simplified_new
Scores
p201
(dp202
g10
I90
sg11
F0.39870464465643474
sg12
F134638319.2404
sg13
Nsba(iGraphics.simplified_new
Scores
p203
(dp204
g10
I87
sg11
F0.4959551657440602
sg12
F130045813.2627
sg13
Nsba(iGraphics.simplified_new
Scores
p205
(dp206
g10
I78
sg11
F0.45744467248903065
sg12
F136758392.9716
sg13
Nsba(iGraphics.simplified_new
Scores
p207
(dp208
g10
I88
sg11
F0.4335934246507643
sg12
F136369548.2634
sg13
Nsba(iGraphics.simplified_new
Scores
p209
(dp210
g10
I78
sg11
F0.5334751735027332
sg12
F138979342.2046
sg13
Nsba(iGraphics.simplified_new
Scores
p211
(dp212
g10
I44
sg11
F0.5088262323014956
sg12
F137305943.8061
sg13
Nsba(iGraphics.simplified_new
Scores
p213
(dp214
g10
I55
sg11
F0.5213505790133822
sg12
F130408785.6738
sg13
Nsba(iGraphics.simplified_new
Scores
p215
(dp216
g10
I78
sg11
F0.4937940223153957
sg12
F129143671.7765
sg13
Nsba(iGraphics.simplified_new
Scores
p217
(dp218
g10
I64
sg11
F0.4528057706068166
sg12
F140039134.6912
sg13
Nsba(iGraphics.simplified_new
Scores
p219
(dp220
g10
I73
sg11
F0.43673082848429146
sg12
F134453044.6523
sg13
Nsba(iGraphics.simplified_new
Scores
p221
(dp222
g10
I87
sg11
F0.4084861922106818
sg12
F134739676.6537
sg13
Nsba(iGraphics.simplified_new
Scores
p223
(dp224
g10
I73
sg11
F0.48540701745942605
sg12
F128546859.138
sg13
Nsba(iGraphics.simplified_new
Scores
p225
(dp226
g10
I78
sg11
F0.46185900574581806
sg12
F137002616.2488
sg13
Nsba(iGraphics.simplified_new
Scores
p227
(dp228
g10
I55
sg11
F0.4096461762951773
sg12
F130708402.8227
sg13
Nsba(iGraphics.simplified_new
Scores
p229
(dp230
g10
I39
sg11
F0.4621878460173672
sg12
F130788898.3914
sg13
Nsba(iGraphics.simplified_new
Scores
p231
(dp232
g10
I64
sg11
F0.4279114124788746
sg12
F139003362.688
sg13
Nsbasg52
S'SWAY5'
p233
sbsS'SWAY5_4096'
p234
(iGraphics.simplified_new
SolutionHolder
p235
(dp236
g4
g5
sg6
(lp237
(iGraphics.simplified_new
Scores
p238
(dp239
g10
I48
sg11
F0.4860925985843557
sg12
F124596577.1278
sg13
Nsba(iGraphics.simplified_new
Scores
p240
(dp241
g10
I28
sg11
F0.5522267200500064
sg12
F119979292.5344
sg13
Nsba(iGraphics.simplified_new
Scores
p242
(dp243
g10
I48
sg11
F0.45397335278180817
sg12
F136757597.8206
sg13
Nsba(iGraphics.simplified_new
Scores
p244
(dp245
g10
I32
sg11
F0.5413596734286715
sg12
F127690186.8011
sg13
Nsba(iGraphics.simplified_new
Scores
p246
(dp247
g10
I36
sg11
F0.5364211260117635
sg12
F133465085.902
sg13
Nsba(iGraphics.simplified_new
Scores
p248
(dp249
g10
I32
sg11
F0.46124816455831325
sg12
F133566045.6303
sg13
Nsba(iGraphics.simplified_new
Scores
p250
(dp251
g10
I54
sg11
F0.4782344070621559
sg12
F138515390.9215
sg13
Nsba(iGraphics.simplified_new
Scores
p252
(dp253
g10
I56
sg11
F0.5652122017909936
sg12
F142731942.9959
sg13
Nsba(iGraphics.simplified_new
Scores
p254
(dp255
g10
I32
sg11
F0.5471188343323589
sg12
F131306946.4045
sg13
Nsba(iGraphics.simplified_new
Scores
p256
(dp257
g10
I32
sg11
F0.5027524650360481
sg12
F131178090.7853
sg13
Nsba(iGraphics.simplified_new
Scores
p258
(dp259
g10
I16
sg11
F0.5573045595477807
sg12
F122776422.9889
sg13
Nsba(iGraphics.simplified_new
Scores
p260
(dp261
g10
I18
sg11
F0.5280353696517511
sg12
F130995406.2638
sg13
Nsba(iGraphics.simplified_new
Scores
p262
(dp263
g10
I45
sg11
F0.46392439230771615
sg12
F133953693.8734
sg13
Nsba(iGraphics.simplified_new
Scores
p264
(dp265
g10
I32
sg11
F0.4446644375131975
sg12
F139586537.4921
sg13
Nsba(iGraphics.simplified_new
Scores
p266
(dp267
g10
I63
sg11
F0.39301247895273617
sg12
F126700444.4918
sg13
Nsba(iGraphics.simplified_new
Scores
p268
(dp269
g10
I56
sg11
F0.45952153690775066
sg12
F137243804.7025
sg13
Nsba(iGraphics.simplified_new
Scores
p270
(dp271
g10
I48
sg11
F0.44831972743047044
sg12
F131040951.4148
sg13
Nsba(iGraphics.simplified_new
Scores
p272
(dp273
g10
I21
sg11
F0.6562213010890582
sg12
F111792126.5996
sg13
Nsba(iGraphics.simplified_new
Scores
p274
(dp275
g10
I16
sg11
F0.5302781488366266
sg12
F133567261.939
sg13
Nsba(iGraphics.simplified_new
Scores
p276
(dp277
g10
I22
sg11
F0.6216898271642229
sg12
F123155736.4661
sg13
Nsbasg52
S'SWAY5'
p278
sbsS'SWAY5_512'
p279
(iGraphics.simplified_new
SolutionHolder
p280
(dp281
g4
g5
sg6
(lp282
(iGraphics.simplified_new
Scores
p283
(dp284
g10
I16
sg11
F0.5058182281466894
sg12
F132425476.2147
sg13
Nsba(iGraphics.simplified_new
Scores
p285
(dp286
g10
I16
sg11
F0.5181152641996447
sg12
F119729194.6497
sg13
Nsba(iGraphics.simplified_new
Scores
p287
(dp288
g10
I15
sg11
F0.5164186232285095
sg12
F111533285.1893
sg13
Nsba(iGraphics.simplified_new
Scores
p289
(dp290
g10
I12
sg11
F0.46465147267082707
sg12
F128028431.467
sg13
Nsba(iGraphics.simplified_new
Scores
p291
(dp292
g10
I16
sg11
F0.5531405504422865
sg12
F124120551.8025
sg13
Nsba(iGraphics.simplified_new
Scores
p293
(dp294
g10
I21
sg11
F0.4649543232298646
sg12
F128075343.4654
sg13
Nsba(iGraphics.simplified_new
Scores
p295
(dp296
g10
I12
sg11
F0.7433811852969064
sg12
F118494351.7348
sg13
Nsba(iGraphics.simplified_new
Scores
p297
(dp298
g10
I18
sg11
F0.5565518888288461
sg12
F114207437.6541
sg13
Nsba(iGraphics.simplified_new
Scores
p299
(dp300
g10
I16
sg11
F0.5920981057682657
sg12
F119916498.6392
sg13
Nsba(iGraphics.simplified_new
Scores
p301
(dp302
g10
I16
sg11
F0.5901391619555307
sg12
F126607812.5463
sg13
Nsba(iGraphics.simplified_new
Scores
p303
(dp304
g10
I18
sg11
F0.4333552608221566
sg12
F125743174.4335
sg13
Nsba(iGraphics.simplified_new
Scores
p305
(dp306
g10
I14
sg11
F0.3906739114041466
sg12
F130016634.3063
sg13
Nsba(iGraphics.simplified_new
Scores
p307
(dp308
g10
I18
sg11
F0.5256860403303307
sg12
F138342475.6136
sg13
Nsba(iGraphics.simplified_new
Scores
p309
(dp310
g10
I14
sg11
F0.6782874566589261
sg12
F116742437.9935
sg13
Nsba(iGraphics.simplified_new
Scores
p311
(dp312
g10
I16
sg11
F0.6450561491858463
sg12
F119775575.4143
sg13
Nsba(iGraphics.simplified_new
Scores
p313
(dp314
g10
I16
sg11
F0.5478453358161703
sg12
F131496927.892
sg13
Nsba(iGraphics.simplified_new
Scores
p315
(dp316
g10
I16
sg11
F0.427889691050517
sg12
F114958734.7884
sg13
Nsba(iGraphics.simplified_new
Scores
p317
(dp318
g10
I12
sg11
F0.5497772878101433
sg12
F125268824.4793
sg13
Nsba(iGraphics.simplified_new
Scores
p319
(dp320
g10
I16
sg11
F0.4947496751409538
sg12
F129707769.1423
sg13
Nsba(iGraphics.simplified_new
Scores
p321
(dp322
g10
I14
sg11
F0.6384423477952458
sg12
F129760313.0896
sg13
Nsbasg52
S'SWAY5'
p323
sbsS'SWAY5_100'
p324
(iGraphics.simplified_new
SolutionHolder
p325
(dp326
g4
g5
sg6
(lp327
(iGraphics.simplified_new
Scores
p328
(dp329
g10
I5
sg11
F0.6667886460640092
sg12
F124202408.9163
sg13
Nsba(iGraphics.simplified_new
Scores
p330
(dp331
g10
I7
sg11
F0.5868490294864037
sg12
F114837415.8283
sg13
Nsba(iGraphics.simplified_new
Scores
p332
(dp333
g10
I7
sg11
F0.5758653835003227
sg12
F117996294.5381
sg13
Nsba(iGraphics.simplified_new
Scores
p334
(dp335
g10
I9
sg11
F0.6643215953712844
sg12
F123016826.0413
sg13
Nsba(iGraphics.simplified_new
Scores
p336
(dp337
g10
I9
sg11
F0.5918404852624263
sg12
F114498370.2981
sg13
Nsba(iGraphics.simplified_new
Scores
p338
(dp339
g10
I6
sg11
F0.7864422637223275
sg12
F112386872.3707
sg13
Nsba(iGraphics.simplified_new
Scores
p340
(dp341
g10
I6
sg11
F0.7476211882227375
sg12
F106640162.2204
sg13
Nsba(iGraphics.simplified_new
Scores
p342
(dp343
g10
I6
sg11
F0.7726789054382752
sg12
F121630745.8531
sg13
Nsba(iGraphics.simplified_new
Scores
p344
(dp345
g10
I7
sg11
F0.6251624340695617
sg12
F118653271.6182
sg13
Nsba(iGraphics.simplified_new
Scores
p346
(dp347
g10
I6
sg11
F0.6722884644525026
sg12
F130353179.5012
sg13
Nsba(iGraphics.simplified_new
Scores
p348
(dp349
g10
I9
sg11
F0.6499807184388037
sg12
F121857358.8688
sg13
Nsba(iGraphics.simplified_new
Scores
p350
(dp351
g10
I6
sg11
F0.7777062312294568
sg12
F106421681.4172
sg13
Nsba(iGraphics.simplified_new
Scores
p352
(dp353
g10
I6
sg11
F0.6910349300922399
sg12
F105930333.4554
sg13
Nsba(iGraphics.simplified_new
Scores
p354
(dp355
g10
I6
sg11
F0.6345295713554412
sg12
F104454844.5075
sg13
Nsba(iGraphics.simplified_new
Scores
p356
(dp357
g10
I6
sg11
F0.7356926909395436
sg12
F114737178.3058
sg13
Nsba(iGraphics.simplified_new
Scores
p358
(dp359
g10
I6
sg11
F0.7477459753034819
sg12
F104825714.8768
sg13
Nsba(iGraphics.simplified_new
Scores
p360
(dp361
g10
I7
sg11
F0.5179713994469879
sg12
F102798802.5145
sg13
Nsba(iGraphics.simplified_new
Scores
p362
(dp363
g10
I6
sg11
F0.8509642302639036
sg12
F112549215.9662
sg13
Nsba(iGraphics.simplified_new
Scores
p364
(dp365
g10
I6
sg11
F0.6890482697807366
sg12
F115623117.2077
sg13
Nsba(iGraphics.simplified_new
Scores
p366
(dp367
g10
I5
sg11
F0.5872176398043157
sg12
F86195775.1122
sg13
Nsbasg52
S'SWAY5'
p368
sbsS'NSGAII_100'
p369
(iGraphics.simplified_new
SolutionHolder
p370
(dp371
g4
g5
sg6
(lp372
(iGraphics.simplified_new
Scores
p373
(dp374
g10
I100
sg11
F0.7209291440493093
sg12
F142246866.4471
sg13
Nsba(iGraphics.simplified_new
Scores
p375
(dp376
g10
I100
sg11
F0.7698820611776994
sg12
F146108710.137
sg13
Nsba(iGraphics.simplified_new
Scores
p377
(dp378
g10
I100
sg11
F0.674148023246459
sg12
F141593642.0453
sg13
Nsba(iGraphics.simplified_new
Scores
p379
(dp380
g10
I100
sg11
F0.6718754204688525
sg12
F143540221.7941
sg13
Nsba(iGraphics.simplified_new
Scores
p381
(dp382
g10
I100
sg11
F0.7352928136298024
sg12
F143692593.5956
sg13
Nsba(iGraphics.simplified_new
Scores
p383
(dp384
g10
I100
sg11
F0.62165081187521
sg12
F143717971.6298
sg13
Nsba(iGraphics.simplified_new
Scores
p385
(dp386
g10
I100
sg11
F0.7194850465135287
sg12
F143385232.3328
sg13
Nsba(iGraphics.simplified_new
Scores
p387
(dp388
g10
I100
sg11
F0.6762337965197717
sg12
F142527890.245
sg13
Nsba(iGraphics.simplified_new
Scores
p389
(dp390
g10
I100
sg11
F0.7929278405681913
sg12
F143166767.4494
sg13
Nsba(iGraphics.simplified_new
Scores
p391
(dp392
g10
I100
sg11
F0.685735461255666
sg12
F143605027.2031
sg13
Nsba(iGraphics.simplified_new
Scores
p393
(dp394
g10
I100
sg11
F0.6786645348592635
sg12
F143999403.3912
sg13
Nsba(iGraphics.simplified_new
Scores
p395
(dp396
g10
I100
sg11
F0.6055238618107346
sg12
F144514794.2206
sg13
Nsba(iGraphics.simplified_new
Scores
p397
(dp398
g10
I100
sg11
F0.7313589176664961
sg12
F142931854.265
sg13
Nsba(iGraphics.simplified_new
Scores
p399
(dp400
g10
I100
sg11
F0.6766809795837344
sg12
F143267455.9029
sg13
Nsba(iGraphics.simplified_new
Scores
p401
(dp402
g10
I100
sg11
F0.7117110306150808
sg12
F144724349.0961
sg13
Nsba(iGraphics.simplified_new
Scores
p403
(dp404
g10
I100
sg11
F0.7122166237065848
sg12
F144590091.3353
sg13
Nsba(iGraphics.simplified_new
Scores
p405
(dp406
g10
I100
sg11
F0.6594244577573878
sg12
F144439274.3348
sg13
Nsba(iGraphics.simplified_new
Scores
p407
(dp408
g10
I100
sg11
F0.7123158105280636
sg12
F143392147.1725
sg13
Nsba(iGraphics.simplified_new
Scores
p409
(dp410
g10
I100
sg11
F0.8105939264130787
sg12
F144824956.9185
sg13
Nsba(iGraphics.simplified_new
Scores
p411
(dp412
g10
I100
sg11
F0.760534274153214
sg12
F144062820.6689
sg13
Nsbasg52
S'NSGAII'
p413
sbs.