(dp0
S'SPEA2_100'
p1
(iGraphics.simplified_new
SolutionHolder
p2
(dp3
S'problem'
p4
S'xomoo2'
p5
sS'repeats'
p6
(lp7
(iGraphics.simplified_new
Scores
p8
(dp9
S'pfs'
p10
I100
sS'spread'
p11
F0.6971155097290069
sS'hv'
p12
F143113213.8415
sS'igd'
p13
Nsba(iGraphics.simplified_new
Scores
p14
(dp15
g10
I100
sg11
F0.6132822743738424
sg12
F143431688.8448
sg13
Nsba(iGraphics.simplified_new
Scores
p16
(dp17
g10
I100
sg11
F0.6862588841519001
sg12
F143685306.5768
sg13
Nsba(iGraphics.simplified_new
Scores
p18
(dp19
g10
I100
sg11
F0.6532419458574381
sg12
F144882163.5628
sg13
Nsba(iGraphics.simplified_new
Scores
p20
(dp21
g10
I100
sg11
F0.7384439623922233
sg12
F144464229.2371
sg13
Nsba(iGraphics.simplified_new
Scores
p22
(dp23
g10
I100
sg11
F0.6763287551749838
sg12
F143514660.0658
sg13
Nsba(iGraphics.simplified_new
Scores
p24
(dp25
g10
I100
sg11
F0.7196178966425948
sg12
F145086515.5266
sg13
Nsba(iGraphics.simplified_new
Scores
p26
(dp27
g10
I100
sg11
F0.7173211926817586
sg12
F143853601.2044
sg13
Nsba(iGraphics.simplified_new
Scores
p28
(dp29
g10
I100
sg11
F0.6643124852765947
sg12
F144468744.6025
sg13
Nsba(iGraphics.simplified_new
Scores
p30
(dp31
g10
I100
sg11
F0.7655853982900123
sg12
F145323179.9809
sg13
Nsba(iGraphics.simplified_new
Scores
p32
(dp33
g10
I100
sg11
F0.6727888834730527
sg12
F142819333.4282
sg13
Nsba(iGraphics.simplified_new
Scores
p34
(dp35
g10
I100
sg11
F0.6983775432470595
sg12
F142049975.8203
sg13
Nsba(iGraphics.simplified_new
Scores
p36
(dp37
g10
I100
sg11
F0.7150075928255083
sg12
F141527674.7525
sg13
Nsba(iGraphics.simplified_new
Scores
p38
(dp39
g10
I100
sg11
F0.712869576032367
sg12
F142704990.4498
sg13
Nsba(iGraphics.simplified_new
Scores
p40
(dp41
g10
I100
sg11
F0.6943062941318391
sg12
F142927977.253
sg13
Nsba(iGraphics.simplified_new
Scores
p42
(dp43
g10
I100
sg11
F0.7420968660490341
sg12
F143636047.3617
sg13
Nsba(iGraphics.simplified_new
Scores
p44
(dp45
g10
I100
sg11
F0.7305406249069014
sg12
F144722943.8371
sg13
Nsba(iGraphics.simplified_new
Scores
p46
(dp47
g10
I100
sg11
F0.6898575822168344
sg12
F145270661.4395
sg13
Nsba(iGraphics.simplified_new
Scores
p48
(dp49
g10
I100
sg11
F0.6706280372408798
sg12
F144115899.7527
sg13
Nsba(iGraphics.simplified_new
Scores
p50
(dp51
g10
I100
sg11
F0.7273970131768686
sg12
F142462702.5653
sg13
NsbasS'algorithm'
p52
S'SPEA2'
p53
sbsS'SWAY5_8192'
p54
(iGraphics.simplified_new
SolutionHolder
p55
(dp56
g4
g5
sg6
(lp57
(iGraphics.simplified_new
Scores
p58
(dp59
g10
I31
sg11
F0.4513951648153268
sg12
F124706498.4242
sg13
Nsba(iGraphics.simplified_new
Scores
p60
(dp61
g10
I63
sg11
F0.4245279679653566
sg12
F133454893.5285
sg13
Nsba(iGraphics.simplified_new
Scores
p62
(dp63
g10
I64
sg11
F0.48788237937376827
sg12
F134361366.4121
sg13
Nsba(iGraphics.simplified_new
Scores
p64
(dp65
g10
I64
sg11
F0.46288390329108964
sg12
F130903475.3458
sg13
Nsba(iGraphics.simplified_new
Scores
p66
(dp67
g10
I84
sg11
F0.45145154423574946
sg12
F125127405.2065
sg13
Nsba(iGraphics.simplified_new
Scores
p68
(dp69
g10
I84
sg11
F0.49931976186012067
sg12
F133965410.7773
sg13
Nsba(iGraphics.simplified_new
Scores
p70
(dp71
g10
I56
sg11
F0.445169501122361
sg12
F133057990.9081
sg13
Nsba(iGraphics.simplified_new
Scores
p72
(dp73
g10
I63
sg11
F0.4706865351384443
sg12
F132679520.4347
sg13
Nsba(iGraphics.simplified_new
Scores
p74
(dp75
g10
I27
sg11
F0.5507539569863226
sg12
F125934998.3759
sg13
Nsba(iGraphics.simplified_new
Scores
p76
(dp77
g10
I72
sg11
F0.4735792240487295
sg12
F130829041.8879
sg13
Nsba(iGraphics.simplified_new
Scores
p78
(dp79
g10
I33
sg11
F0.5185030038732311
sg12
F117262946.4601
sg13
Nsba(iGraphics.simplified_new
Scores
p80
(dp81
g10
I84
sg11
F0.4974272277932856
sg12
F131303131.7636
sg13
Nsba(iGraphics.simplified_new
Scores
p82
(dp83
g10
I48
sg11
F0.516584739407716
sg12
F130915938.1475
sg13
Nsba(iGraphics.simplified_new
Scores
p84
(dp85
g10
I56
sg11
F0.48782397998405974
sg12
F139446471.3521
sg13
Nsba(iGraphics.simplified_new
Scores
p86
(dp87
g10
I85
sg11
F0.4701204418880421
sg12
F132035641.9334
sg13
Nsba(iGraphics.simplified_new
Scores
p88
(dp89
g10
I60
sg11
F0.4245732862657053
sg12
F138361758.0123
sg13
Nsba(iGraphics.simplified_new
Scores
p90
(dp91
g10
I32
sg11
F0.46987437721137515
sg12
F135279793.4872
sg13
Nsba(iGraphics.simplified_new
Scores
p92
(dp93
g10
I49
sg11
F0.39561374255107806
sg12
F121837921.0353
sg13
Nsba(iGraphics.simplified_new
Scores
p94
(dp95
g10
I84
sg11
F0.4851028916551785
sg12
F138116327.2852
sg13
Nsba(iGraphics.simplified_new
Scores
p96
(dp97
g10
I36
sg11
F0.5535489082875138
sg12
F124499767.1182
sg13
Nsbasg52
S'SWAY5'
p98
sbsS'SWAY5_1024'
p99
(iGraphics.simplified_new
SolutionHolder
p100
(dp101
g4
g5
sg6
(lp102
(iGraphics.simplified_new
Scores
p103
(dp104
g10
I31
sg11
F0.46045404805433887
sg12
F134879047.697
sg13
Nsba(iGraphics.simplified_new
Scores
p105
(dp106
g10
I24
sg11
F0.5103453523886513
sg12
F127926366.7861
sg13
Nsba(iGraphics.simplified_new
Scores
p107
(dp108
g10
I18
sg11
F0.5428439703211142
sg12
F127892665.3008
sg13
Nsba(iGraphics.simplified_new
Scores
p109
(dp110
g10
I16
sg11
F0.4966887872915865
sg12
F126389554.2206
sg13
Nsba(iGraphics.simplified_new
Scores
p111
(dp112
g10
I24
sg11
F0.5744899267544413
sg12
F127709448.3986
sg13
Nsba(iGraphics.simplified_new
Scores
p113
(dp114
g10
I18
sg11
F0.5189095664719957
sg12
F118363752.7814
sg13
Nsba(iGraphics.simplified_new
Scores
p115
(dp116
g10
I24
sg11
F0.4152179003185392
sg12
F112075889.9507
sg13
Nsba(iGraphics.simplified_new
Scores
p117
(dp118
g10
I31
sg11
F0.47024928647229736
sg12
F126344087.22
sg13
Nsba(iGraphics.simplified_new
Scores
p119
(dp120
g10
I24
sg11
F0.4323828886356498
sg12
F114857767.2294
sg13
Nsba(iGraphics.simplified_new
Scores
p121
(dp122
g10
I24
sg11
F0.47525676104442693
sg12
F137485250.2262
sg13
Nsba(iGraphics.simplified_new
Scores
p123
(dp124
g10
I16
sg11
F0.6216905675682891
sg12
F110876131.3511
sg13
Nsba(iGraphics.simplified_new
Scores
p125
(dp126
g10
I16
sg11
F0.5986283385509442
sg12
F129060723.7192
sg13
Nsba(iGraphics.simplified_new
Scores
p127
(dp128
g10
I24
sg11
F0.479677087414406
sg12
F127759343.4708
sg13
Nsba(iGraphics.simplified_new
Scores
p129
(dp130
g10
I16
sg11
F0.570586721932908
sg12
F129713485.8321
sg13
Nsba(iGraphics.simplified_new
Scores
p131
(dp132
g10
I16
sg11
F0.498463939091781
sg12
F131579049.3093
sg13
Nsba(iGraphics.simplified_new
Scores
p133
(dp134
g10
I18
sg11
F0.6090249272399841
sg12
F122153856.5915
sg13
Nsba(iGraphics.simplified_new
Scores
p135
(dp136
g10
I24
sg11
F0.5380677104168688
sg12
F132207821.9675
sg13
Nsba(iGraphics.simplified_new
Scores
p137
(dp138
g10
I16
sg11
F0.44309349186801
sg12
F128274666.1237
sg13
Nsba(iGraphics.simplified_new
Scores
p139
(dp140
g10
I24
sg11
F0.4785616607383123
sg12
F123079424.3318
sg13
Nsba(iGraphics.simplified_new
Scores
p141
(dp142
g10
I16
sg11
F0.5639409822605675
sg12
F114676813.6832
sg13
Nsbasg52
S'SWAY5'
p143
sbsS'SWAY5_2048'
p144
(iGraphics.simplified_new
SolutionHolder
p145
(dp146
g4
g5
sg6
(lp147
(iGraphics.simplified_new
Scores
p148
(dp149
g10
I28
sg11
F0.5643386934815309
sg12
F118754288.9367
sg13
Nsba(iGraphics.simplified_new
Scores
p150
(dp151
g10
I32
sg11
F0.39251764701359937
sg12
F112957973.5991
sg13
Nsba(iGraphics.simplified_new
Scores
p152
(dp153
g10
I24
sg11
F0.4510597936524075
sg12
F125460433.393
sg13
Nsba(iGraphics.simplified_new
Scores
p154
(dp155
g10
I37
sg11
F0.5676876475300159
sg12
F139862523.0337
sg13
Nsba(iGraphics.simplified_new
Scores
p156
(dp157
g10
I23
sg11
F0.5226683369433135
sg12
F124200710.481
sg13
Nsba(iGraphics.simplified_new
Scores
p158
(dp159
g10
I42
sg11
F0.36256685975732844
sg12
F133848383.5449
sg13
Nsba(iGraphics.simplified_new
Scores
p160
(dp161
g10
I16
sg11
F0.5237649459852692
sg12
F130267683.9207
sg13
Nsba(iGraphics.simplified_new
Scores
p162
(dp163
g10
I42
sg11
F0.36434191388621484
sg12
F133676535.4685
sg13
Nsba(iGraphics.simplified_new
Scores
p164
(dp165
g10
I28
sg11
F0.49596021540127355
sg12
F126503433.0396
sg13
Nsba(iGraphics.simplified_new
Scores
p166
(dp167
g10
I30
sg11
F0.5047995338525968
sg12
F132128836.9576
sg13
Nsba(iGraphics.simplified_new
Scores
p168
(dp169
g10
I30
sg11
F0.5204490789775755
sg12
F125295483.8503
sg13
Nsba(iGraphics.simplified_new
Scores
p170
(dp171
g10
I31
sg11
F0.4347458264192194
sg12
F126692932.0269
sg13
Nsba(iGraphics.simplified_new
Scores
p172
(dp173
g10
I24
sg11
F0.4683895018922016
sg12
F137057971.3704
sg13
Nsba(iGraphics.simplified_new
Scores
p174
(dp175
g10
I32
sg11
F0.5211417829797745
sg12
F127774873.2338
sg13
Nsba(iGraphics.simplified_new
Scores
p176
(dp177
g10
I32
sg11
F0.4905213992740693
sg12
F132355301.4395
sg13
Nsba(iGraphics.simplified_new
Scores
p178
(dp179
g10
I24
sg11
F0.4536756479832901
sg12
F124305773.5728
sg13
Nsba(iGraphics.simplified_new
Scores
p180
(dp181
g10
I24
sg11
F0.5501858905918656
sg12
F123701015.7039
sg13
Nsba(iGraphics.simplified_new
Scores
p182
(dp183
g10
I24
sg11
F0.4729010587178629
sg12
F121341673.614
sg13
Nsba(iGraphics.simplified_new
Scores
p184
(dp185
g10
I32
sg11
F0.455421386226702
sg12
F140560484.6945
sg13
Nsba(iGraphics.simplified_new
Scores
p186
(dp187
g10
I32
sg11
F0.5447276811261273
sg12
F140551419.4868
sg13
Nsbasg52
S'SWAY5'
p188
sbsS'SWAY5_10000'
p189
(iGraphics.simplified_new
SolutionHolder
p190
(dp191
g4
g5
sg6
(lp192
(iGraphics.simplified_new
Scores
p193
(dp194
g10
I59
sg11
F0.4462179541250184
sg12
F130472386.0355
sg13
Nsba(iGraphics.simplified_new
Scores
p195
(dp196
g10
I76
sg11
F0.47083847846020316
sg12
F132299976.6379
sg13
Nsba(iGraphics.simplified_new
Scores
p197
(dp198
g10
I73
sg11
F0.4364316645570342
sg12
F132773457.2204
sg13
Nsba(iGraphics.simplified_new
Scores
p199
(dp200
g10
I29
sg11
F0.47470776545619847
sg12
F131399580.0079
sg13
Nsba(iGraphics.simplified_new
Scores
p201
(dp202
g10
I78
sg11
F0.4350702947000143
sg12
F131509071.043
sg13
Nsba(iGraphics.simplified_new
Scores
p203
(dp204
g10
I52
sg11
F0.5100889487220425
sg12
F129050064.7702
sg13
Nsba(iGraphics.simplified_new
Scores
p205
(dp206
g10
I78
sg11
F0.4226201978592783
sg12
F129731677.3077
sg13
Nsba(iGraphics.simplified_new
Scores
p207
(dp208
g10
I78
sg11
F0.4942422587032073
sg12
F133735691.2425
sg13
Nsba(iGraphics.simplified_new
Scores
p209
(dp210
g10
I66
sg11
F0.473077286580472
sg12
F141683396.6276
sg13
Nsba(iGraphics.simplified_new
Scores
p211
(dp212
g10
I68
sg11
F0.42695783222168937
sg12
F131307134.0895
sg13
Nsba(iGraphics.simplified_new
Scores
p213
(dp214
g10
I42
sg11
F0.38637025900876615
sg12
F132342461.0624
sg13
Nsba(iGraphics.simplified_new
Scores
p215
(dp216
g10
I45
sg11
F0.5901283075325002
sg12
F140580037.9868
sg13
Nsba(iGraphics.simplified_new
Scores
p217
(dp218
g10
I77
sg11
F0.4544492701563794
sg12
F131464186.0907
sg13
Nsba(iGraphics.simplified_new
Scores
p219
(dp220
g10
I78
sg11
F0.45350028850054364
sg12
F130773612.2381
sg13
Nsba(iGraphics.simplified_new
Scores
p221
(dp222
g10
I51
sg11
F0.4694708375403472
sg12
F128144276.788
sg13
Nsba(iGraphics.simplified_new
Scores
p223
(dp224
g10
I57
sg11
F0.5048947333654902
sg12
F138285828.2263
sg13
Nsba(iGraphics.simplified_new
Scores
p225
(dp226
g10
I29
sg11
F0.5411145954591959
sg12
F133510190.0443
sg13
Nsba(iGraphics.simplified_new
Scores
p227
(dp228
g10
I58
sg11
F0.45183646094360824
sg12
F139903366.787
sg13
Nsba(iGraphics.simplified_new
Scores
p229
(dp230
g10
I44
sg11
F0.414879864890314
sg12
F132586553.4115
sg13
Nsba(iGraphics.simplified_new
Scores
p231
(dp232
g10
I78
sg11
F0.4522743629886069
sg12
F132064553.179
sg13
Nsbasg52
S'SWAY5'
p233
sbsS'SWAY5_4096'
p234
(iGraphics.simplified_new
SolutionHolder
p235
(dp236
g4
g5
sg6
(lp237
(iGraphics.simplified_new
Scores
p238
(dp239
g10
I32
sg11
F0.4103106765867117
sg12
F127659151.1759
sg13
Nsba(iGraphics.simplified_new
Scores
p240
(dp241
g10
I48
sg11
F0.378958169332713
sg12
F136021106.7468
sg13
Nsba(iGraphics.simplified_new
Scores
p242
(dp243
g10
I63
sg11
F0.5145457140514411
sg12
F131304902.2446
sg13
Nsba(iGraphics.simplified_new
Scores
p244
(dp245
g10
I24
sg11
F0.5163262370565002
sg12
F128845802.5728
sg13
Nsba(iGraphics.simplified_new
Scores
p246
(dp247
g10
I59
sg11
F0.45177255230215635
sg12
F135532380.9241
sg13
Nsba(iGraphics.simplified_new
Scores
p248
(dp249
g10
I34
sg11
F0.4617266702685806
sg12
F128007170.0062
sg13
Nsba(iGraphics.simplified_new
Scores
p250
(dp251
g10
I32
sg11
F0.5599274116631042
sg12
F130861406.2657
sg13
Nsba(iGraphics.simplified_new
Scores
p252
(dp253
g10
I54
sg11
F0.44578484057540735
sg12
F127816621.4117
sg13
Nsba(iGraphics.simplified_new
Scores
p254
(dp255
g10
I32
sg11
F0.46130441431882796
sg12
F131793055.7615
sg13
Nsba(iGraphics.simplified_new
Scores
p256
(dp257
g10
I54
sg11
F0.4897464549452991
sg12
F132267051.062
sg13
Nsba(iGraphics.simplified_new
Scores
p258
(dp259
g10
I56
sg11
F0.49751818891516514
sg12
F124394900.1378
sg13
Nsba(iGraphics.simplified_new
Scores
p260
(dp261
g10
I32
sg11
F0.5263761067387834
sg12
F128786800.7812
sg13
Nsba(iGraphics.simplified_new
Scores
p262
(dp263
g10
I36
sg11
F0.4714804124883501
sg12
F134958282.0081
sg13
Nsba(iGraphics.simplified_new
Scores
p264
(dp265
g10
I30
sg11
F0.4740244548968347
sg12
F126450801.1677
sg13
Nsba(iGraphics.simplified_new
Scores
p266
(dp267
g10
I60
sg11
F0.40921563925059795
sg12
F139917061.5176
sg13
Nsba(iGraphics.simplified_new
Scores
p268
(dp269
g10
I31
sg11
F0.5209230016229521
sg12
F122020949.1239
sg13
Nsba(iGraphics.simplified_new
Scores
p270
(dp271
g10
I42
sg11
F0.5821834049568101
sg12
F124001184.6336
sg13
Nsba(iGraphics.simplified_new
Scores
p272
(dp273
g10
I37
sg11
F0.41504523945173794
sg12
F128845537.4053
sg13
Nsba(iGraphics.simplified_new
Scores
p274
(dp275
g10
I48
sg11
F0.4330286616607277
sg12
F132568688.0271
sg13
Nsba(iGraphics.simplified_new
Scores
p276
(dp277
g10
I48
sg11
F0.4308723556236047
sg12
F138414128.1385
sg13
Nsbasg52
S'SWAY5'
p278
sbsS'SWAY5_512'
p279
(iGraphics.simplified_new
SolutionHolder
p280
(dp281
g4
g5
sg6
(lp282
(iGraphics.simplified_new
Scores
p283
(dp284
g10
I16
sg11
F0.609624698829737
sg12
F121868012.0441
sg13
Nsba(iGraphics.simplified_new
Scores
p285
(dp286
g10
I16
sg11
F0.5658973820519956
sg12
F118681741.2563
sg13
Nsba(iGraphics.simplified_new
Scores
p287
(dp288
g10
I16
sg11
F0.5322852899163859
sg12
F114255804.7438
sg13
Nsba(iGraphics.simplified_new
Scores
p289
(dp290
g10
I18
sg11
F0.5127584517955499
sg12
F132867582.0608
sg13
Nsba(iGraphics.simplified_new
Scores
p291
(dp292
g10
I12
sg11
F0.6753803602319748
sg12
F124322853.0616
sg13
Nsba(iGraphics.simplified_new
Scores
p293
(dp294
g10
I12
sg11
F0.62849727202746
sg12
F130188244.0034
sg13
Nsba(iGraphics.simplified_new
Scores
p295
(dp296
g10
I16
sg11
F0.5000873018820882
sg12
F132624267.0918
sg13
Nsba(iGraphics.simplified_new
Scores
p297
(dp298
g10
I12
sg11
F0.6149636543910818
sg12
F131111307.8746
sg13
Nsba(iGraphics.simplified_new
Scores
p299
(dp300
g10
I21
sg11
F0.4839366462526558
sg12
F119060272.2169
sg13
Nsba(iGraphics.simplified_new
Scores
p301
(dp302
g10
I12
sg11
F0.6047480602339262
sg12
F123333563.6252
sg13
Nsba(iGraphics.simplified_new
Scores
p303
(dp304
g10
I15
sg11
F0.502731862362042
sg12
F128344612.5224
sg13
Nsba(iGraphics.simplified_new
Scores
p305
(dp306
g10
I15
sg11
F0.4674212970334772
sg12
F123482269.0669
sg13
Nsba(iGraphics.simplified_new
Scores
p307
(dp308
g10
I16
sg11
F0.49828738791230376
sg12
F109658524.3838
sg13
Nsba(iGraphics.simplified_new
Scores
p309
(dp310
g10
I16
sg11
F0.524181115685659
sg12
F139854038.9876
sg13
Nsba(iGraphics.simplified_new
Scores
p311
(dp312
g10
I12
sg11
F0.5318262455159619
sg12
F125077475.0254
sg13
Nsba(iGraphics.simplified_new
Scores
p313
(dp314
g10
I15
sg11
F0.6552001800857526
sg12
F118004919.8813
sg13
Nsba(iGraphics.simplified_new
Scores
p315
(dp316
g10
I16
sg11
F0.4726392816337116
sg12
F125273932.7341
sg13
Nsba(iGraphics.simplified_new
Scores
p317
(dp318
g10
I16
sg11
F0.4519340484230486
sg12
F123664283.8814
sg13
Nsba(iGraphics.simplified_new
Scores
p319
(dp320
g10
I12
sg11
F0.6824774254388962
sg12
F125522591.152
sg13
Nsba(iGraphics.simplified_new
Scores
p321
(dp322
g10
I16
sg11
F0.5174062677409669
sg12
F115530277.9279
sg13
Nsbasg52
S'SWAY5'
p323
sbsS'SWAY5_100'
p324
(iGraphics.simplified_new
SolutionHolder
p325
(dp326
g4
g5
sg6
(lp327
(iGraphics.simplified_new
Scores
p328
(dp329
g10
I6
sg11
F0.6896370697167756
sg12
F94962341.5721
sg13
Nsba(iGraphics.simplified_new
Scores
p330
(dp331
g10
I6
sg11
F0.6119962370661916
sg12
F118949453.3942
sg13
Nsba(iGraphics.simplified_new
Scores
p332
(dp333
g10
I6
sg11
F0.6705329342461968
sg12
F112363849.2659
sg13
Nsba(iGraphics.simplified_new
Scores
p334
(dp335
g10
I6
sg11
F0.7652259444729791
sg12
F107616807.2301
sg13
Nsba(iGraphics.simplified_new
Scores
p336
(dp337
g10
I7
sg11
F0.4926446413745176
sg12
F101992348.1005
sg13
Nsba(iGraphics.simplified_new
Scores
p338
(dp339
g10
I5
sg11
F0.776752919838593
sg12
F91413766.2217
sg13
Nsba(iGraphics.simplified_new
Scores
p340
(dp341
g10
I7
sg11
F0.5494311699836204
sg12
F121179707.4122
sg13
Nsba(iGraphics.simplified_new
Scores
p342
(dp343
g10
I6
sg11
F0.6874957328991685
sg12
F106034968.4902
sg13
Nsba(iGraphics.simplified_new
Scores
p344
(dp345
g10
I6
sg11
F0.6201917717772928
sg12
F132051216.6967
sg13
Nsba(iGraphics.simplified_new
Scores
p346
(dp347
g10
I6
sg11
F0.7242034053518834
sg12
F122245417.5506
sg13
Nsba(iGraphics.simplified_new
Scores
p348
(dp349
g10
I7
sg11
F0.6554569810433345
sg12
F116753997.994
sg13
Nsba(iGraphics.simplified_new
Scores
p350
(dp351
g10
I6
sg11
F0.6831500271924057
sg12
F102719989.0267
sg13
Nsba(iGraphics.simplified_new
Scores
p352
(dp353
g10
I7
sg11
F0.6302095490578888
sg12
F123113377.8964
sg13
Nsba(iGraphics.simplified_new
Scores
p354
(dp355
g10
I7
sg11
F0.6616304775669067
sg12
F106104953.6748
sg13
Nsba(iGraphics.simplified_new
Scores
p356
(dp357
g10
I6
sg11
F0.5230026071929723
sg12
F131480256.2685
sg13
Nsba(iGraphics.simplified_new
Scores
p358
(dp359
g10
I6
sg11
F0.6192986682190683
sg12
F120139976.2067
sg13
Nsba(iGraphics.simplified_new
Scores
p360
(dp361
g10
I6
sg11
F0.5649352240074944
sg12
F120121406.3821
sg13
Nsba(iGraphics.simplified_new
Scores
p362
(dp363
g10
I6
sg11
F0.7691495085138031
sg12
F99830256.7364
sg13
Nsba(iGraphics.simplified_new
Scores
p364
(dp365
g10
I7
sg11
F0.6181629285413363
sg12
F137349943.0906
sg13
Nsba(iGraphics.simplified_new
Scores
p366
(dp367
g10
I9
sg11
F0.6401765326719093
sg12
F128213103.9829
sg13
Nsbasg52
S'SWAY5'
p368
sbsS'NSGAII_100'
p369
(iGraphics.simplified_new
SolutionHolder
p370
(dp371
g4
g5
sg6
(lp372
(iGraphics.simplified_new
Scores
p373
(dp374
g10
I100
sg11
F0.6754875863693016
sg12
F144200401.8253
sg13
Nsba(iGraphics.simplified_new
Scores
p375
(dp376
g10
I100
sg11
F0.6494654959239818
sg12
F143093582.345
sg13
Nsba(iGraphics.simplified_new
Scores
p377
(dp378
g10
I100
sg11
F0.7231031691378346
sg12
F142962579.8811
sg13
Nsba(iGraphics.simplified_new
Scores
p379
(dp380
g10
I100
sg11
F0.7520897957616823
sg12
F143756400.4471
sg13
Nsba(iGraphics.simplified_new
Scores
p381
(dp382
g10
I100
sg11
F0.8076277139124275
sg12
F143339644.8432
sg13
Nsba(iGraphics.simplified_new
Scores
p383
(dp384
g10
I100
sg11
F0.6499663573409106
sg12
F142365806.7997
sg13
Nsba(iGraphics.simplified_new
Scores
p385
(dp386
g10
I100
sg11
F0.7047080824724078
sg12
F141682025.3678
sg13
Nsba(iGraphics.simplified_new
Scores
p387
(dp388
g10
I100
sg11
F0.9087257419963795
sg12
F142539148.7869
sg13
Nsba(iGraphics.simplified_new
Scores
p389
(dp390
g10
I100
sg11
F0.6729169925011846
sg12
F143168815.8304
sg13
Nsba(iGraphics.simplified_new
Scores
p391
(dp392
g10
I100
sg11
F0.6611425540221818
sg12
F142609647.7288
sg13
Nsba(iGraphics.simplified_new
Scores
p393
(dp394
g10
I100
sg11
F0.7670766749618204
sg12
F142236322.9547
sg13
Nsba(iGraphics.simplified_new
Scores
p395
(dp396
g10
I100
sg11
F0.7090928619564657
sg12
F144804321.6356
sg13
Nsba(iGraphics.simplified_new
Scores
p397
(dp398
g10
I100
sg11
F0.7551226139795845
sg12
F143995239.548
sg13
Nsba(iGraphics.simplified_new
Scores
p399
(dp400
g10
I100
sg11
F0.7115669005490642
sg12
F143684492.1479
sg13
Nsba(iGraphics.simplified_new
Scores
p401
(dp402
g10
I100
sg11
F0.7683273785089404
sg12
F144271068.9383
sg13
Nsba(iGraphics.simplified_new
Scores
p403
(dp404
g10
I100
sg11
F0.755805101850637
sg12
F142648996.0789
sg13
Nsba(iGraphics.simplified_new
Scores
p405
(dp406
g10
I100
sg11
F0.6492777344025454
sg12
F143048785.5298
sg13
Nsba(iGraphics.simplified_new
Scores
p407
(dp408
g10
I100
sg11
F0.7502851976465649
sg12
F144609761.7823
sg13
Nsba(iGraphics.simplified_new
Scores
p409
(dp410
g10
I100
sg11
F0.7254991894625874
sg12
F143764853.0442
sg13
Nsba(iGraphics.simplified_new
Scores
p411
(dp412
g10
I100
sg11
F0.8148475481827797
sg12
F143665005.2219
sg13
Nsbasg52
S'NSGAII'
p413
sbs.