(dp0
S'SPEA2_100'
p1
(iGraphics.simplified_new
SolutionHolder
p2
(dp3
S'problem'
p4
S'MONRP_50_4_5_0_110'
p5
sS'repeats'
p6
(lp7
(iGraphics.simplified_new
Scores
p8
(dp9
S'pfs'
p10
I100
sS'spread'
p11
F0.7434491508318125
sS'hv'
p12
F1164065.465
sS'igd'
p13
Nsba(iGraphics.simplified_new
Scores
p14
(dp15
g10
I100
sg11
F0.7939331560082702
sg12
F1204057.6665
sg13
Nsba(iGraphics.simplified_new
Scores
p16
(dp17
g10
I100
sg11
F0.7789216791390092
sg12
F1181812.8531
sg13
Nsba(iGraphics.simplified_new
Scores
p18
(dp19
g10
I100
sg11
F0.7655005557705403
sg12
F1113767.3238
sg13
Nsba(iGraphics.simplified_new
Scores
p20
(dp21
g10
I100
sg11
F0.8051342226992834
sg12
F1158191.5358
sg13
Nsba(iGraphics.simplified_new
Scores
p22
(dp23
g10
I100
sg11
F0.7884913872324077
sg12
F1181580.1418
sg13
Nsba(iGraphics.simplified_new
Scores
p24
(dp25
g10
I100
sg11
F0.792804631769355
sg12
F1062931.1515
sg13
Nsba(iGraphics.simplified_new
Scores
p26
(dp27
g10
I100
sg11
F0.8795806085327813
sg12
F1139765.458
sg13
Nsba(iGraphics.simplified_new
Scores
p28
(dp29
g10
I100
sg11
F0.8052124749765506
sg12
F1275563.6435
sg13
Nsba(iGraphics.simplified_new
Scores
p30
(dp31
g10
I100
sg11
F0.7617790285450159
sg12
F1102907.4136
sg13
Nsba(iGraphics.simplified_new
Scores
p32
(dp33
g10
I100
sg11
F0.7551335312960995
sg12
F1141410.8873
sg13
Nsba(iGraphics.simplified_new
Scores
p34
(dp35
g10
I100
sg11
F0.7406405268844172
sg12
F1281176.5529
sg13
Nsba(iGraphics.simplified_new
Scores
p36
(dp37
g10
I100
sg11
F0.8601493463128027
sg12
F1144969.629
sg13
Nsba(iGraphics.simplified_new
Scores
p38
(dp39
g10
I100
sg11
F0.7657001348789292
sg12
F1135703.712
sg13
Nsba(iGraphics.simplified_new
Scores
p40
(dp41
g10
I100
sg11
F0.7506947261004824
sg12
F1211018.954
sg13
Nsba(iGraphics.simplified_new
Scores
p42
(dp43
g10
I100
sg11
F0.8067185945701469
sg12
F1211582.443
sg13
Nsba(iGraphics.simplified_new
Scores
p44
(dp45
g10
I100
sg11
F0.8993385161337143
sg12
F1116180.3202
sg13
Nsba(iGraphics.simplified_new
Scores
p46
(dp47
g10
I100
sg11
F0.7344128642271143
sg12
F1329816.828
sg13
Nsba(iGraphics.simplified_new
Scores
p48
(dp49
g10
I100
sg11
F0.7986493480620998
sg12
F1204320.5058
sg13
Nsba(iGraphics.simplified_new
Scores
p50
(dp51
g10
I100
sg11
F0.7807303003461354
sg12
F1122574.093
sg13
NsbasS'algorithm'
p52
S'SPEA2'
p53
sbsS'SWAY5_8192'
p54
(iGraphics.simplified_new
SolutionHolder
p55
(dp56
g4
g5
sg6
(lp57
(iGraphics.simplified_new
Scores
p58
(dp59
g10
I48
sg11
F0.7081743697480813
sg12
F7919.2485
sg13
Nsba(iGraphics.simplified_new
Scores
p60
(dp61
g10
I63
sg11
F0.6451180566010695
sg12
F7617.7908
sg13
Nsba(iGraphics.simplified_new
Scores
p62
(dp63
g10
I36
sg11
F0.7210156473179591
sg12
F7777.5725
sg13
Nsba(iGraphics.simplified_new
Scores
p64
(dp65
g10
I54
sg11
F0.7286694208980361
sg12
F7968.9414
sg13
Nsba(iGraphics.simplified_new
Scores
p66
(dp67
g10
I72
sg11
F0.6178018030848731
sg12
F7646.4268
sg13
Nsba(iGraphics.simplified_new
Scores
p68
(dp69
g10
I64
sg11
F0.6326836271173968
sg12
F7846.4911
sg13
Nsba(iGraphics.simplified_new
Scores
p70
(dp71
g10
I64
sg11
F0.6895742529918322
sg12
F7913.8964
sg13
Nsba(iGraphics.simplified_new
Scores
p72
(dp73
g10
I64
sg11
F0.7268780971061634
sg12
F7930.7277
sg13
Nsba(iGraphics.simplified_new
Scores
p74
(dp75
g10
I84
sg11
F0.6313111421219736
sg12
F8191.2358
sg13
Nsba(iGraphics.simplified_new
Scores
p76
(dp77
g10
I24
sg11
F0.6874575074695222
sg12
F9649.5169
sg13
Nsba(iGraphics.simplified_new
Scores
p78
(dp79
g10
I64
sg11
F0.7565722006288614
sg12
F7750.2677
sg13
Nsba(iGraphics.simplified_new
Scores
p80
(dp81
g10
I79
sg11
F0.6385557514848976
sg12
F8037.1921
sg13
Nsba(iGraphics.simplified_new
Scores
p82
(dp83
g10
I63
sg11
F0.6673859756438998
sg12
F7686.9268
sg13
Nsba(iGraphics.simplified_new
Scores
p84
(dp85
g10
I63
sg11
F0.6712204361823334
sg12
F7725.9249
sg13
Nsba(iGraphics.simplified_new
Scores
p86
(dp87
g10
I63
sg11
F0.7444928523640985
sg12
F8324.2224
sg13
Nsba(iGraphics.simplified_new
Scores
p88
(dp89
g10
I72
sg11
F0.6017646493082563
sg12
F7839.8522
sg13
Nsba(iGraphics.simplified_new
Scores
p90
(dp91
g10
I32
sg11
F0.7597441805765309
sg12
F8109.6593
sg13
Nsba(iGraphics.simplified_new
Scores
p92
(dp93
g10
I64
sg11
F0.6692543809415383
sg12
F7834.764
sg13
Nsba(iGraphics.simplified_new
Scores
p94
(dp95
g10
I56
sg11
F0.5872540040045762
sg12
F6460.9741
sg13
Nsba(iGraphics.simplified_new
Scores
p96
(dp97
g10
I63
sg11
F0.635611480201077
sg12
F7771.2157
sg13
Nsbasg52
S'SWAY5'
p98
sbsS'SWAY5_1024'
p99
(iGraphics.simplified_new
SolutionHolder
p100
(dp101
g4
g5
sg6
(lp102
(iGraphics.simplified_new
Scores
p103
(dp104
g10
I24
sg11
F0.8137697211135455
sg12
F872584.277
sg13
Nsba(iGraphics.simplified_new
Scores
p105
(dp106
g10
I27
sg11
F0.7992658866200815
sg12
F729003.3313
sg13
Nsba(iGraphics.simplified_new
Scores
p107
(dp108
g10
I16
sg11
F0.7381844918283332
sg12
F750700.521
sg13
Nsba(iGraphics.simplified_new
Scores
p109
(dp110
g10
I27
sg11
F0.7729421664605373
sg12
F824546.8856
sg13
Nsba(iGraphics.simplified_new
Scores
p111
(dp112
g10
I27
sg11
F0.7814335537457998
sg12
F875752.4027
sg13
Nsba(iGraphics.simplified_new
Scores
p113
(dp114
g10
I31
sg11
F0.6933645620441935
sg12
F827258.3878
sg13
Nsba(iGraphics.simplified_new
Scores
p115
(dp116
g10
I31
sg11
F0.7410855213620963
sg12
F876560.9264
sg13
Nsba(iGraphics.simplified_new
Scores
p117
(dp118
g10
I28
sg11
F0.7523215758968664
sg12
F814875.3986
sg13
Nsba(iGraphics.simplified_new
Scores
p119
(dp120
g10
I24
sg11
F0.6998451040715804
sg12
F769913.166
sg13
Nsba(iGraphics.simplified_new
Scores
p121
(dp122
g10
I18
sg11
F0.7629178371563112
sg12
F875752.4027
sg13
Nsba(iGraphics.simplified_new
Scores
p123
(dp124
g10
I24
sg11
F0.812179920521193
sg12
F750943.3592
sg13
Nsba(iGraphics.simplified_new
Scores
p125
(dp126
g10
I31
sg11
F0.797019656725314
sg12
F875853.5979
sg13
Nsba(iGraphics.simplified_new
Scores
p127
(dp128
g10
I18
sg11
F0.6628664803710984
sg12
F657163.2235
sg13
Nsba(iGraphics.simplified_new
Scores
p129
(dp130
g10
I16
sg11
F0.676463070104814
sg12
F717465.1429
sg13
Nsba(iGraphics.simplified_new
Scores
p131
(dp132
g10
I24
sg11
F0.967461682873778
sg12
F746571.9988
sg13
Nsba(iGraphics.simplified_new
Scores
p133
(dp134
g10
I24
sg11
F0.6830284343530831
sg12
F740443.6963
sg13
Nsba(iGraphics.simplified_new
Scores
p135
(dp136
g10
I24
sg11
F0.827009884103268
sg12
F848734.465
sg13
Nsba(iGraphics.simplified_new
Scores
p137
(dp138
g10
I31
sg11
F0.7320371122359154
sg12
F793008.3963
sg13
Nsba(iGraphics.simplified_new
Scores
p139
(dp140
g10
I16
sg11
F0.8319977689076006
sg12
F797366.8065
sg13
Nsba(iGraphics.simplified_new
Scores
p141
(dp142
g10
I28
sg11
F0.7688426517923465
sg12
F769229.7261
sg13
Nsbasg52
S'SWAY5'
p143
sbsS'SWAY5_2048'
p144
(iGraphics.simplified_new
SolutionHolder
p145
(dp146
g4
g5
sg6
(lp147
(iGraphics.simplified_new
Scores
p148
(dp149
g10
I31
sg11
F0.7158482510533548
sg12
F877092.337
sg13
Nsba(iGraphics.simplified_new
Scores
p150
(dp151
g10
I24
sg11
F0.6409558406536023
sg12
F994781.1413
sg13
Nsba(iGraphics.simplified_new
Scores
p152
(dp153
g10
I32
sg11
F0.7369960094431496
sg12
F870916.0168
sg13
Nsba(iGraphics.simplified_new
Scores
p154
(dp155
g10
I28
sg11
F0.646764108678565
sg12
F826384.7687
sg13
Nsba(iGraphics.simplified_new
Scores
p156
(dp157
g10
I32
sg11
F0.8582720130368064
sg12
F930375.5051
sg13
Nsba(iGraphics.simplified_new
Scores
p158
(dp159
g10
I32
sg11
F0.7202833963607668
sg12
F879122.6221
sg13
Nsba(iGraphics.simplified_new
Scores
p160
(dp161
g10
I28
sg11
F0.7782806512070192
sg12
F946295.72
sg13
Nsba(iGraphics.simplified_new
Scores
p162
(dp163
g10
I31
sg11
F0.7198557900360174
sg12
F874202.2793
sg13
Nsba(iGraphics.simplified_new
Scores
p164
(dp165
g10
I28
sg11
F0.8321346067378311
sg12
F843103.4262
sg13
Nsba(iGraphics.simplified_new
Scores
p166
(dp167
g10
I42
sg11
F0.6962458289538677
sg12
F759401.2238
sg13
Nsba(iGraphics.simplified_new
Scores
p168
(dp169
g10
I41
sg11
F0.7066310679691794
sg12
F829379.4795
sg13
Nsba(iGraphics.simplified_new
Scores
p170
(dp171
g10
I24
sg11
F0.8200816126659907
sg12
F752547.6151
sg13
Nsba(iGraphics.simplified_new
Scores
p172
(dp173
g10
I28
sg11
F0.7241632433870164
sg12
F748013.733
sg13
Nsba(iGraphics.simplified_new
Scores
p174
(dp175
g10
I32
sg11
F0.7599588173156342
sg12
F809626.7692
sg13
Nsba(iGraphics.simplified_new
Scores
p176
(dp177
g10
I32
sg11
F0.7820451958262923
sg12
F948077.3402
sg13
Nsba(iGraphics.simplified_new
Scores
p178
(dp179
g10
I16
sg11
F0.822716114392863
sg12
F837837.8994
sg13
Nsba(iGraphics.simplified_new
Scores
p180
(dp181
g10
I16
sg11
F0.8788968086636932
sg12
F824770.4337
sg13
Nsba(iGraphics.simplified_new
Scores
p182
(dp183
g10
I36
sg11
F0.6638159194625333
sg12
F872933.4068
sg13
Nsba(iGraphics.simplified_new
Scores
p184
(dp185
g10
I24
sg11
F0.8360068674059629
sg12
F829687.084
sg13
Nsba(iGraphics.simplified_new
Scores
p186
(dp187
g10
I23
sg11
F0.7496901815610786
sg12
F879330.7426
sg13
Nsbasg52
S'SWAY5'
p188
sbsS'SWAY5_10000'
p189
(iGraphics.simplified_new
SolutionHolder
p190
(dp191
g4
g5
sg6
(lp192
(iGraphics.simplified_new
Scores
p193
(dp194
g10
I58
sg11
F0.6245052634696342
sg12
F10559.8035
sg13
Nsba(iGraphics.simplified_new
Scores
p195
(dp196
g10
I39
sg11
F0.6599649290826892
sg12
F7674.1087
sg13
Nsba(iGraphics.simplified_new
Scores
p197
(dp198
g10
I62
sg11
F0.6836005423671415
sg12
F8409.6563
sg13
Nsba(iGraphics.simplified_new
Scores
p199
(dp200
g10
I218
sg11
F0.6305027757223814
sg12
F8571.5858
sg13
Nsba(iGraphics.simplified_new
Scores
p201
(dp202
g10
I52
sg11
F0.7141144243155911
sg12
F8733.4818
sg13
Nsba(iGraphics.simplified_new
Scores
p203
(dp204
g10
I78
sg11
F0.7096941637165085
sg12
F7868.1623
sg13
Nsba(iGraphics.simplified_new
Scores
p205
(dp206
g10
I78
sg11
F0.5464042571007615
sg12
F8186.094
sg13
Nsba(iGraphics.simplified_new
Scores
p207
(dp208
g10
I70
sg11
F0.6743489762872146
sg12
F7757.1425
sg13
Nsba(iGraphics.simplified_new
Scores
p209
(dp210
g10
I78
sg11
F0.6787289639889628
sg12
F8936.0984
sg13
Nsba(iGraphics.simplified_new
Scores
p211
(dp212
g10
I87
sg11
F0.6172215958488112
sg12
F8884.2589
sg13
Nsba(iGraphics.simplified_new
Scores
p213
(dp214
g10
I41
sg11
F0.6756211369534643
sg12
F7970.921
sg13
Nsba(iGraphics.simplified_new
Scores
p215
(dp216
g10
I87
sg11
F0.612150460054515
sg12
F8732.4887
sg13
Nsba(iGraphics.simplified_new
Scores
p217
(dp218
g10
I68
sg11
F0.6256462584563149
sg12
F8412.9308
sg13
Nsba(iGraphics.simplified_new
Scores
p219
(dp220
g10
I78
sg11
F0.6084696563763053
sg12
F8429.9705
sg13
Nsba(iGraphics.simplified_new
Scores
p221
(dp222
g10
I166
sg11
F0.633342429642478
sg12
F8534.7063
sg13
Nsba(iGraphics.simplified_new
Scores
p223
(dp224
g10
I29
sg11
F0.7085782949476076
sg12
F8267.2139
sg13
Nsba(iGraphics.simplified_new
Scores
p225
(dp226
g10
I34
sg11
F0.761101016964808
sg12
F9228.8372
sg13
Nsba(iGraphics.simplified_new
Scores
p227
(dp228
g10
I51
sg11
F0.6735981859981163
sg12
F8617.7402
sg13
Nsba(iGraphics.simplified_new
Scores
p229
(dp230
g10
I78
sg11
F0.6739762886445466
sg12
F8434.8973
sg13
Nsba(iGraphics.simplified_new
Scores
p231
(dp232
g10
I38
sg11
F0.7145814092657607
sg12
F8390.0079
sg13
Nsbasg52
S'SWAY5'
p233
sbsS'SWAY5_4096'
p234
(iGraphics.simplified_new
SolutionHolder
p235
(dp236
g4
g5
sg6
(lp237
(iGraphics.simplified_new
Scores
p238
(dp239
g10
I36
sg11
F0.8079446458179804
sg12
F931461.0365
sg13
Nsba(iGraphics.simplified_new
Scores
p240
(dp241
g10
I24
sg11
F0.6473295664339429
sg12
F810845.0228
sg13
Nsba(iGraphics.simplified_new
Scores
p242
(dp243
g10
I24
sg11
F0.8153105973471848
sg12
F838690.1299
sg13
Nsba(iGraphics.simplified_new
Scores
p244
(dp245
g10
I32
sg11
F0.7554408427699232
sg12
F880912.8515
sg13
Nsba(iGraphics.simplified_new
Scores
p246
(dp247
g10
I54
sg11
F0.738348740602631
sg12
F971120.6481
sg13
Nsba(iGraphics.simplified_new
Scores
p248
(dp249
g10
I48
sg11
F0.7035405399341427
sg12
F917352.744
sg13
Nsba(iGraphics.simplified_new
Scores
p250
(dp251
g10
I48
sg11
F0.7110575450125927
sg12
F891793.78
sg13
Nsba(iGraphics.simplified_new
Scores
p252
(dp253
g10
I63
sg11
F0.6336551226137407
sg12
F896199.3014
sg13
Nsba(iGraphics.simplified_new
Scores
p254
(dp255
g10
I16
sg11
F0.8456054500956783
sg12
F881729.7323
sg13
Nsba(iGraphics.simplified_new
Scores
p256
(dp257
g10
I63
sg11
F0.6694278066075944
sg12
F823122.9398
sg13
Nsba(iGraphics.simplified_new
Scores
p258
(dp259
g10
I45
sg11
F0.8031436406952612
sg12
F1111621.0221
sg13
Nsba(iGraphics.simplified_new
Scores
p260
(dp261
g10
I48
sg11
F0.6882045937385567
sg12
F971518.417
sg13
Nsba(iGraphics.simplified_new
Scores
p262
(dp263
g10
I48
sg11
F0.6330007778230883
sg12
F907860.9839
sg13
Nsba(iGraphics.simplified_new
Scores
p264
(dp265
g10
I48
sg11
F0.6201134785855786
sg12
F929035.3923
sg13
Nsba(iGraphics.simplified_new
Scores
p266
(dp267
g10
I63
sg11
F0.7583729190003828
sg12
F991975.2483
sg13
Nsba(iGraphics.simplified_new
Scores
p268
(dp269
g10
I22
sg11
F0.7949417604306296
sg12
F867134.7035
sg13
Nsba(iGraphics.simplified_new
Scores
p270
(dp271
g10
I63
sg11
F0.666904461936231
sg12
F918663.1445
sg13
Nsba(iGraphics.simplified_new
Scores
p272
(dp273
g10
I54
sg11
F0.6725773964190704
sg12
F948938.071
sg13
Nsba(iGraphics.simplified_new
Scores
p274
(dp275
g10
I48
sg11
F0.7383698325765068
sg12
F882231.2731
sg13
Nsba(iGraphics.simplified_new
Scores
p276
(dp277
g10
I48
sg11
F0.7569577313684427
sg12
F895699.2457
sg13
Nsbasg52
S'SWAY5'
p278
sbsS'SWAY5_512'
p279
(iGraphics.simplified_new
SolutionHolder
p280
(dp281
g4
g5
sg6
(lp282
(iGraphics.simplified_new
Scores
p283
(dp284
g10
I16
sg11
F0.7789267487468479
sg12
F781924.0557
sg13
Nsba(iGraphics.simplified_new
Scores
p285
(dp286
g10
I16
sg11
F0.6926459091366352
sg12
F915172.3851
sg13
Nsba(iGraphics.simplified_new
Scores
p287
(dp288
g10
I15
sg11
F0.8912852248643959
sg12
F780510.6837
sg13
Nsba(iGraphics.simplified_new
Scores
p289
(dp290
g10
I12
sg11
F0.8683131667281461
sg12
F692892.2266
sg13
Nsba(iGraphics.simplified_new
Scores
p291
(dp292
g10
I21
sg11
F0.7098584816198525
sg12
F825128.7369
sg13
Nsba(iGraphics.simplified_new
Scores
p293
(dp294
g10
I14
sg11
F0.8592530472300223
sg12
F718203.0829
sg13
Nsba(iGraphics.simplified_new
Scores
p295
(dp296
g10
I12
sg11
F0.8468372405698734
sg12
F718169.0029
sg13
Nsba(iGraphics.simplified_new
Scores
p297
(dp298
g10
I18
sg11
F0.7923385884436129
sg12
F810180.713
sg13
Nsba(iGraphics.simplified_new
Scores
p299
(dp300
g10
I16
sg11
F0.6140405464062169
sg12
F825446.0262
sg13
Nsba(iGraphics.simplified_new
Scores
p301
(dp302
g10
I14
sg11
F0.7628731371365742
sg12
F854240.1888
sg13
Nsba(iGraphics.simplified_new
Scores
p303
(dp304
g10
I16
sg11
F0.7890829940684627
sg12
F822056.2221
sg13
Nsba(iGraphics.simplified_new
Scores
p305
(dp306
g10
I16
sg11
F0.8220979360986819
sg12
F772638.6638
sg13
Nsba(iGraphics.simplified_new
Scores
p307
(dp308
g10
I14
sg11
F0.8480509538664833
sg12
F793125.5839
sg13
Nsba(iGraphics.simplified_new
Scores
p309
(dp310
g10
I15
sg11
F0.6871367468153006
sg12
F791457.384
sg13
Nsba(iGraphics.simplified_new
Scores
p311
(dp312
g10
I16
sg11
F0.6598115569505683
sg12
F696689.2172
sg13
Nsba(iGraphics.simplified_new
Scores
p313
(dp314
g10
I16
sg11
F0.8484158393892924
sg12
F771565.5563
sg13
Nsba(iGraphics.simplified_new
Scores
p315
(dp316
g10
I12
sg11
F0.7721189571348904
sg12
F798890.4326
sg13
Nsba(iGraphics.simplified_new
Scores
p317
(dp318
g10
I16
sg11
F0.7680958180007129
sg12
F814388.1424
sg13
Nsba(iGraphics.simplified_new
Scores
p319
(dp320
g10
I12
sg11
F0.7218154815496628
sg12
F854804.7276
sg13
Nsba(iGraphics.simplified_new
Scores
p321
(dp322
g10
I12
sg11
F0.7931685221134919
sg12
F853217.4784
sg13
Nsbasg52
S'SWAY5'
p323
sbsS'SWAY5_100'
p324
(iGraphics.simplified_new
SolutionHolder
p325
(dp326
g4
g5
sg6
(lp327
(iGraphics.simplified_new
Scores
p328
(dp329
g10
I6
sg11
F0.8469659379271003
sg12
F886002.5268
sg13
Nsba(iGraphics.simplified_new
Scores
p330
(dp331
g10
I9
sg11
F0.6953579422565741
sg12
F723102.0621
sg13
Nsba(iGraphics.simplified_new
Scores
p332
(dp333
g10
I6
sg11
F0.9235331788826534
sg12
F663229.7445
sg13
Nsba(iGraphics.simplified_new
Scores
p334
(dp335
g10
I6
sg11
F0.8546509589823392
sg12
F865681.5096
sg13
Nsba(iGraphics.simplified_new
Scores
p336
(dp337
g10
I6
sg11
F0.7605199980387018
sg12
F886002.5268
sg13
Nsba(iGraphics.simplified_new
Scores
p338
(dp339
g10
I6
sg11
F0.8562328117952045
sg12
F719816.1068
sg13
Nsba(iGraphics.simplified_new
Scores
p340
(dp341
g10
I9
sg11
F0.8514646739047877
sg12
F704894.0674
sg13
Nsba(iGraphics.simplified_new
Scores
p342
(dp343
g10
I6
sg11
F0.954480018342788
sg12
F865681.5096
sg13
Nsba(iGraphics.simplified_new
Scores
p344
(dp345
g10
I6
sg11
F0.9054969100120182
sg12
F865681.5096
sg13
Nsba(iGraphics.simplified_new
Scores
p346
(dp347
g10
I6
sg11
F0.8621575782007382
sg12
F694657.1189
sg13
Nsba(iGraphics.simplified_new
Scores
p348
(dp349
g10
I6
sg11
F0.9176329173167346
sg12
F886002.5268
sg13
Nsba(iGraphics.simplified_new
Scores
p350
(dp351
g10
I9
sg11
F0.7714043325836638
sg12
F887918.5535
sg13
Nsba(iGraphics.simplified_new
Scores
p352
(dp353
g10
I6
sg11
F0.91719968493523
sg12
F613098.9228
sg13
Nsba(iGraphics.simplified_new
Scores
p354
(dp355
g10
I6
sg11
F0.8640303935927192
sg12
F745126.3612
sg13
Nsba(iGraphics.simplified_new
Scores
p356
(dp357
g10
I6
sg11
F0.8930526681552743
sg12
F703012.5745
sg13
Nsba(iGraphics.simplified_new
Scores
p358
(dp359
g10
I9
sg11
F0.8149437282125737
sg12
F719398.4119
sg13
Nsba(iGraphics.simplified_new
Scores
p360
(dp361
g10
I6
sg11
F0.8431886851646498
sg12
F747125.768
sg13
Nsba(iGraphics.simplified_new
Scores
p362
(dp363
g10
I6
sg11
F0.916141443477046
sg12
F637608.6062
sg13
Nsba(iGraphics.simplified_new
Scores
p364
(dp365
g10
I6
sg11
F0.8536613989385615
sg12
F885455.4213
sg13
Nsba(iGraphics.simplified_new
Scores
p366
(dp367
g10
I6
sg11
F0.8676911080200155
sg12
F785756.1502
sg13
Nsbasg52
S'SWAY5'
p368
sbsS'NSGAII_100'
p369
(iGraphics.simplified_new
SolutionHolder
p370
(dp371
g4
g5
sg6
(lp372
(iGraphics.simplified_new
Scores
p373
(dp374
g10
I100
sg11
F0.776420848876411
sg12
F1225566.273
sg13
Nsba(iGraphics.simplified_new
Scores
p375
(dp376
g10
I100
sg11
F0.7339597948790474
sg12
F1264248.5728
sg13
Nsba(iGraphics.simplified_new
Scores
p377
(dp378
g10
I100
sg11
F0.8204401124251822
sg12
F1124555.4636
sg13
Nsba(iGraphics.simplified_new
Scores
p379
(dp380
g10
I100
sg11
F0.9008562954117998
sg12
F1129507.2084
sg13
Nsba(iGraphics.simplified_new
Scores
p381
(dp382
g10
I100
sg11
F0.8743612490857742
sg12
F1217311.2597
sg13
Nsba(iGraphics.simplified_new
Scores
p383
(dp384
g10
I100
sg11
F0.7819777356078705
sg12
F1183387.2154
sg13
Nsba(iGraphics.simplified_new
Scores
p385
(dp386
g10
I100
sg11
F0.8278365472680987
sg12
F1197234.4666
sg13
Nsba(iGraphics.simplified_new
Scores
p387
(dp388
g10
I100
sg11
F0.9212225614050019
sg12
F1233816.0725
sg13
Nsba(iGraphics.simplified_new
Scores
p389
(dp390
g10
I100
sg11
F0.8319423974229392
sg12
F1180197.3351
sg13
Nsba(iGraphics.simplified_new
Scores
p391
(dp392
g10
I100
sg11
F0.8377027985029264
sg12
F1147094.6057
sg13
Nsba(iGraphics.simplified_new
Scores
p393
(dp394
g10
I100
sg11
F0.8442598992137467
sg12
F1172421.2885
sg13
Nsba(iGraphics.simplified_new
Scores
p395
(dp396
g10
I100
sg11
F0.8547391723491413
sg12
F1233922.7195
sg13
Nsba(iGraphics.simplified_new
Scores
p397
(dp398
g10
I100
sg11
F0.8979832891230334
sg12
F1265329.8038
sg13
Nsba(iGraphics.simplified_new
Scores
p399
(dp400
g10
I100
sg11
F0.8552701597760534
sg12
F1302441.5194
sg13
Nsba(iGraphics.simplified_new
Scores
p401
(dp402
g10
I100
sg11
F0.8213339794334815
sg12
F1120607.6277
sg13
Nsba(iGraphics.simplified_new
Scores
p403
(dp404
g10
I100
sg11
F0.8368403132677265
sg12
F1098611.5197
sg13
Nsba(iGraphics.simplified_new
Scores
p405
(dp406
g10
I100
sg11
F0.7945001380878562
sg12
F1089424.9436
sg13
Nsba(iGraphics.simplified_new
Scores
p407
(dp408
g10
I100
sg11
F0.8351597926134148
sg12
F1223374.0921
sg13
Nsba(iGraphics.simplified_new
Scores
p409
(dp410
g10
I100
sg11
F0.8304590365079711
sg12
F1152584.6562
sg13
Nsba(iGraphics.simplified_new
Scores
p411
(dp412
g10
I100
sg11
F0.7746305430157633
sg12
F1208887.6054
sg13
Nsbasg52
S'NSGAII'
p413
sbs.