(dp0
S'SWAY5_100'
p1
(iGraphics.simplified_new
SolutionHolder
p2
(dp3
S'problem'
p4
S'POM3A(S)'
p5
sS'repeats'
p6
(lp7
(iGraphics.simplified_new
Scores
p8
(dp9
S'pfs'
p10
I9
sS'spread'
p11
F0.47075064258677957
sS'hv'
p12
F812893.3184
sS'igd'
p13
Nsba(iGraphics.simplified_new
Scores
p14
(dp15
g10
I7
sg11
F0.635248476204281
sg12
F833907.3763
sg13
Nsba(iGraphics.simplified_new
Scores
p16
(dp17
g10
I6
sg11
F0.5257779745940733
sg12
F570548.794
sg13
Nsba(iGraphics.simplified_new
Scores
p18
(dp19
g10
I7
sg11
F0.598607251954316
sg12
F360157.9582
sg13
Nsba(iGraphics.simplified_new
Scores
p20
(dp21
g10
I6
sg11
F0.6265622196016628
sg12
F476197.527
sg13
Nsba(iGraphics.simplified_new
Scores
p22
(dp23
g10
I7
sg11
F0.4890847730292605
sg12
F869438.7706
sg13
Nsba(iGraphics.simplified_new
Scores
p24
(dp25
g10
I6
sg11
F0.40657995133164326
sg12
F520421.1579
sg13
Nsba(iGraphics.simplified_new
Scores
p26
(dp27
g10
I7
sg11
F0.46935044593869274
sg12
F688071.7926
sg13
Nsba(iGraphics.simplified_new
Scores
p28
(dp29
g10
I9
sg11
F0.4497480970786756
sg12
F1227420.3476
sg13
Nsba(iGraphics.simplified_new
Scores
p30
(dp31
g10
I6
sg11
F0.538517726039627
sg12
F564336.4855
sg13
Nsba(iGraphics.simplified_new
Scores
p32
(dp33
g10
I6
sg11
F0.6402877047091917
sg12
F1058059.6655
sg13
Nsba(iGraphics.simplified_new
Scores
p34
(dp35
g10
I6
sg11
F0.5236485143226292
sg12
F667301.5593
sg13
Nsba(iGraphics.simplified_new
Scores
p36
(dp37
g10
I6
sg11
F0.6022012008059905
sg12
F604617.057
sg13
Nsba(iGraphics.simplified_new
Scores
p38
(dp39
g10
I6
sg11
F0.6259568514810812
sg12
F1202085.3202
sg13
Nsba(iGraphics.simplified_new
Scores
p40
(dp41
g10
I6
sg11
F0.7890459324337781
sg12
F763255.1584
sg13
Nsba(iGraphics.simplified_new
Scores
p42
(dp43
g10
I5
sg11
F0.5407852931339975
sg12
F683563.8031
sg13
Nsba(iGraphics.simplified_new
Scores
p44
(dp45
g10
I6
sg11
F0.48610492353891377
sg12
F661852.7482
sg13
Nsba(iGraphics.simplified_new
Scores
p46
(dp47
g10
I7
sg11
F0.5063572767465293
sg12
F638221.2912
sg13
Nsba(iGraphics.simplified_new
Scores
p48
(dp49
g10
I9
sg11
F0.36135625501954266
sg12
F883916.9105
sg13
Nsba(iGraphics.simplified_new
Scores
p50
(dp51
g10
I7
sg11
F0.4994188140755911
sg12
F551113.4214
sg13
NsbasS'algorithm'
p52
S'SWAY5'
p53
sbs.