(dp0
S'SPEA2_100'
p1
(iGraphics.simplified_new
SolutionHolder
p2
(dp3
S'problem'
p4
S'POM3A'
p5
sS'repeats'
p6
(lp7
(iGraphics.simplified_new
Scores
p8
(dp9
S'pfs'
p10
I100
sS'spread'
p11
F0.5640935440405739
sS'hv'
p12
F1314402.9829
sS'igd'
p13
Nsba(iGraphics.simplified_new
Scores
p14
(dp15
g10
I100
sg11
F0.65177369128562
sg12
F1319739.3705
sg13
Nsba(iGraphics.simplified_new
Scores
p16
(dp17
g10
I100
sg11
F0.6279612923914015
sg12
F1315039.9335
sg13
Nsba(iGraphics.simplified_new
Scores
p18
(dp19
g10
I100
sg11
F0.6567908129785286
sg12
F1315682.1902
sg13
Nsba(iGraphics.simplified_new
Scores
p20
(dp21
g10
I100
sg11
F0.6714589373239472
sg12
F1313041.5152
sg13
Nsba(iGraphics.simplified_new
Scores
p22
(dp23
g10
I100
sg11
F0.7664665231871927
sg12
F1312459.895
sg13
Nsba(iGraphics.simplified_new
Scores
p24
(dp25
g10
I100
sg11
F0.7660798406897618
sg12
F1320291.1124
sg13
Nsba(iGraphics.simplified_new
Scores
p26
(dp27
g10
I100
sg11
F0.707897336763093
sg12
F1319144.0079
sg13
Nsba(iGraphics.simplified_new
Scores
p28
(dp29
g10
I100
sg11
F0.7151505745948245
sg12
F1309786.1988
sg13
Nsba(iGraphics.simplified_new
Scores
p30
(dp31
g10
I100
sg11
F0.6890749044682404
sg12
F1318536.2223
sg13
Nsba(iGraphics.simplified_new
Scores
p32
(dp33
g10
I100
sg11
F0.7814742662879454
sg12
F1316375.5715
sg13
Nsba(iGraphics.simplified_new
Scores
p34
(dp35
g10
I100
sg11
F0.6598541600840433
sg12
F1312654.2643
sg13
Nsba(iGraphics.simplified_new
Scores
p36
(dp37
g10
I100
sg11
F0.6599975200139825
sg12
F1308530.3495
sg13
Nsba(iGraphics.simplified_new
Scores
p38
(dp39
g10
I100
sg11
F0.8082227371256924
sg12
F1317805.4855
sg13
Nsba(iGraphics.simplified_new
Scores
p40
(dp41
g10
I100
sg11
F0.7819753135605946
sg12
F1314327.5123
sg13
Nsba(iGraphics.simplified_new
Scores
p42
(dp43
g10
I100
sg11
F0.622983810750341
sg12
F1315753.8725
sg13
Nsba(iGraphics.simplified_new
Scores
p44
(dp45
g10
I100
sg11
F0.7513872724086292
sg12
F1318915.0867
sg13
Nsba(iGraphics.simplified_new
Scores
p46
(dp47
g10
I100
sg11
F0.675224502581137
sg12
F1314349.1758
sg13
Nsba(iGraphics.simplified_new
Scores
p48
(dp49
g10
I100
sg11
F0.689112078655125
sg12
F1310083.6303
sg13
Nsba(iGraphics.simplified_new
Scores
p50
(dp51
g10
I100
sg11
F0.6299969465824855
sg12
F1310906.5052
sg13
NsbasS'algorithm'
p52
S'SPEA2'
p53
sbsS'SWAY5_8192'
p54
(iGraphics.simplified_new
SolutionHolder
p55
(dp56
g4
g5
sg6
(lp57
(iGraphics.simplified_new
Scores
p58
(dp59
g10
I30
sg11
F0.4331927858173634
sg12
F1117271.836
sg13
Nsba(iGraphics.simplified_new
Scores
p60
(dp61
g10
I55
sg11
F0.49437639927099986
sg12
F1262467.9574
sg13
Nsba(iGraphics.simplified_new
Scores
p62
(dp63
g10
I64
sg11
F0.4080831932605998
sg12
F1235510.4085
sg13
Nsba(iGraphics.simplified_new
Scores
p64
(dp65
g10
I56
sg11
F0.3840860345111967
sg12
F1104743.6634
sg13
Nsba(iGraphics.simplified_new
Scores
p66
(dp67
g10
I72
sg11
F0.3899207126320873
sg12
F1248310.351
sg13
Nsba(iGraphics.simplified_new
Scores
p68
(dp69
g10
I62
sg11
F0.35018738009118056
sg12
F1224160.5297
sg13
Nsba(iGraphics.simplified_new
Scores
p70
(dp71
g10
I72
sg11
F0.43124894464213187
sg12
F1235045.0865
sg13
Nsba(iGraphics.simplified_new
Scores
p72
(dp73
g10
I54
sg11
F0.4323750700675615
sg12
F1186943.4479
sg13
Nsba(iGraphics.simplified_new
Scores
p74
(dp75
g10
I63
sg11
F0.4673514577176321
sg12
F1191367.0135
sg13
Nsba(iGraphics.simplified_new
Scores
p76
(dp77
g10
I24
sg11
F0.5066753838326177
sg12
F1189538.4848
sg13
Nsba(iGraphics.simplified_new
Scores
p78
(dp79
g10
I84
sg11
F0.4210260003041076
sg12
F1236027.4637
sg13
Nsba(iGraphics.simplified_new
Scores
p80
(dp81
g10
I49
sg11
F0.4473311627186019
sg12
F1168202.8041
sg13
Nsba(iGraphics.simplified_new
Scores
p82
(dp83
g10
I48
sg11
F0.43518567925089935
sg12
F1197071.9313
sg13
Nsba(iGraphics.simplified_new
Scores
p84
(dp85
g10
I55
sg11
F0.41001296914423774
sg12
F1241660.0794
sg13
Nsba(iGraphics.simplified_new
Scores
p86
(dp87
g10
I48
sg11
F0.306731225087124
sg12
F1210139.8236
sg13
Nsba(iGraphics.simplified_new
Scores
p88
(dp89
g10
I84
sg11
F0.46519332597939206
sg12
F1251977.3283
sg13
Nsba(iGraphics.simplified_new
Scores
p90
(dp91
g10
I87
sg11
F0.3999957092467354
sg12
F1238312.8712
sg13
Nsba(iGraphics.simplified_new
Scores
p92
(dp93
g10
I31
sg11
F0.4964527365710561
sg12
F1241318.3242
sg13
Nsba(iGraphics.simplified_new
Scores
p94
(dp95
g10
I31
sg11
F0.5820855602312025
sg12
F1218907.2772
sg13
Nsba(iGraphics.simplified_new
Scores
p96
(dp97
g10
I24
sg11
F0.3905895131650172
sg12
F1072013.7413
sg13
Nsbasg52
S'SWAY5'
p98
sbsS'SWAY5_1024'
p99
(iGraphics.simplified_new
SolutionHolder
p100
(dp101
g4
g5
sg6
(lp102
(iGraphics.simplified_new
Scores
p103
(dp104
g10
I16
sg11
F0.5681766182245961
sg12
F1121232.4976
sg13
Nsba(iGraphics.simplified_new
Scores
p105
(dp106
g10
I18
sg11
F0.38131800436163377
sg12
F1168036.8792
sg13
Nsba(iGraphics.simplified_new
Scores
p107
(dp108
g10
I28
sg11
F0.4050000533455194
sg12
F1144069.502
sg13
Nsba(iGraphics.simplified_new
Scores
p109
(dp110
g10
I16
sg11
F0.5629004409606598
sg12
F1205485.1299
sg13
Nsba(iGraphics.simplified_new
Scores
p111
(dp112
g10
I16
sg11
F0.5454661118736305
sg12
F1091902.1477
sg13
Nsba(iGraphics.simplified_new
Scores
p113
(dp114
g10
I24
sg11
F0.41674188932928036
sg12
F1222204.1014
sg13
Nsba(iGraphics.simplified_new
Scores
p115
(dp116
g10
I23
sg11
F0.43140543499202205
sg12
F1162716.1535
sg13
Nsba(iGraphics.simplified_new
Scores
p117
(dp118
g10
I24
sg11
F0.4706904215636857
sg12
F1176513.4897
sg13
Nsba(iGraphics.simplified_new
Scores
p119
(dp120
g10
I16
sg11
F0.4791189556526133
sg12
F1171004.0248
sg13
Nsba(iGraphics.simplified_new
Scores
p121
(dp122
g10
I18
sg11
F0.5027523398026267
sg12
F1218913.4175
sg13
Nsba(iGraphics.simplified_new
Scores
p123
(dp124
g10
I31
sg11
F0.39261652984911694
sg12
F1125726.8765
sg13
Nsba(iGraphics.simplified_new
Scores
p125
(dp126
g10
I31
sg11
F0.5740342074046637
sg12
F1010180.3324
sg13
Nsba(iGraphics.simplified_new
Scores
p127
(dp128
g10
I31
sg11
F0.4463437491822744
sg12
F1185743.7229
sg13
Nsba(iGraphics.simplified_new
Scores
p129
(dp130
g10
I18
sg11
F0.5057451989767797
sg12
F1203924.0379
sg13
Nsba(iGraphics.simplified_new
Scores
p131
(dp132
g10
I27
sg11
F0.4586464286381897
sg12
F1236314.895
sg13
Nsba(iGraphics.simplified_new
Scores
p133
(dp134
g10
I21
sg11
F0.4972782165869168
sg12
F1010960.8928
sg13
Nsba(iGraphics.simplified_new
Scores
p135
(dp136
g10
I16
sg11
F0.4593549552740839
sg12
F1144377.9906
sg13
Nsba(iGraphics.simplified_new
Scores
p137
(dp138
g10
I18
sg11
F0.5658053232940672
sg12
F1154993.4071
sg13
Nsba(iGraphics.simplified_new
Scores
p139
(dp140
g10
I18
sg11
F0.43825436334383155
sg12
F1209856.579
sg13
Nsba(iGraphics.simplified_new
Scores
p141
(dp142
g10
I21
sg11
F0.5314894354951333
sg12
F1267597.6927
sg13
Nsbasg52
S'SWAY5'
p143
sbsS'SWAY5_2048'
p144
(iGraphics.simplified_new
SolutionHolder
p145
(dp146
g4
g5
sg6
(lp147
(iGraphics.simplified_new
Scores
p148
(dp149
g10
I32
sg11
F0.46087213564997553
sg12
F1236583.5036
sg13
Nsba(iGraphics.simplified_new
Scores
p150
(dp151
g10
I31
sg11
F0.4102823350770609
sg12
F1107478.5106
sg13
Nsba(iGraphics.simplified_new
Scores
p152
(dp153
g10
I24
sg11
F0.48563010984518334
sg12
F1203515.1488
sg13
Nsba(iGraphics.simplified_new
Scores
p154
(dp155
g10
I32
sg11
F0.3901945216356369
sg12
F1132558.7256
sg13
Nsba(iGraphics.simplified_new
Scores
p156
(dp157
g10
I28
sg11
F0.4569987411931014
sg12
F1094310.7412
sg13
Nsba(iGraphics.simplified_new
Scores
p158
(dp159
g10
I24
sg11
F0.482591677105599
sg12
F1208411.4773
sg13
Nsba(iGraphics.simplified_new
Scores
p160
(dp161
g10
I31
sg11
F0.44164458995694444
sg12
F1098831.0451
sg13
Nsba(iGraphics.simplified_new
Scores
p162
(dp163
g10
I32
sg11
F0.43096115415900527
sg12
F1096300.9789
sg13
Nsba(iGraphics.simplified_new
Scores
p164
(dp165
g10
I28
sg11
F0.5404072337217025
sg12
F1144353.9738
sg13
Nsba(iGraphics.simplified_new
Scores
p166
(dp167
g10
I31
sg11
F0.40776698612404766
sg12
F1139170.2007
sg13
Nsba(iGraphics.simplified_new
Scores
p168
(dp169
g10
I28
sg11
F0.39776077466271
sg12
F1183056.8574
sg13
Nsba(iGraphics.simplified_new
Scores
p170
(dp171
g10
I16
sg11
F0.539196234568524
sg12
F1148784.2753
sg13
Nsba(iGraphics.simplified_new
Scores
p172
(dp173
g10
I32
sg11
F0.38391243606215925
sg12
F1152354.3554
sg13
Nsba(iGraphics.simplified_new
Scores
p174
(dp175
g10
I31
sg11
F0.3794274257154748
sg12
F911059.7232
sg13
Nsba(iGraphics.simplified_new
Scores
p176
(dp177
g10
I24
sg11
F0.6485437791104375
sg12
F1206741.071
sg13
Nsba(iGraphics.simplified_new
Scores
p178
(dp179
g10
I42
sg11
F0.41414534061571395
sg12
F1184552.8911
sg13
Nsba(iGraphics.simplified_new
Scores
p180
(dp181
g10
I24
sg11
F0.41031809822573834
sg12
F1077889.6991
sg13
Nsba(iGraphics.simplified_new
Scores
p182
(dp183
g10
I32
sg11
F0.43075297475724544
sg12
F1183253.2042
sg13
Nsba(iGraphics.simplified_new
Scores
p184
(dp185
g10
I42
sg11
F0.4428082923641313
sg12
F1225836.2623
sg13
Nsba(iGraphics.simplified_new
Scores
p186
(dp187
g10
I28
sg11
F0.3851376644221207
sg12
F1188535.4779
sg13
Nsbasg52
S'SWAY5'
p188
sbsS'SWAY5_10000'
p189
(iGraphics.simplified_new
SolutionHolder
p190
(dp191
g4
g5
sg6
(lp192
(iGraphics.simplified_new
Scores
p193
(dp194
g10
I36
sg11
F0.43491200950566244
sg12
F1250067.7919
sg13
Nsba(iGraphics.simplified_new
Scores
p195
(dp196
g10
I68
sg11
F0.4701329590479623
sg12
F866048.6052
sg13
Nsba(iGraphics.simplified_new
Scores
p197
(dp198
g10
I39
sg11
F0.4714957454741595
sg12
F1164907.19
sg13
Nsba(iGraphics.simplified_new
Scores
p199
(dp200
g10
I39
sg11
F0.4838423288368084
sg12
F1070031.3827
sg13
Nsba(iGraphics.simplified_new
Scores
p201
(dp202
g10
I75
sg11
F0.46126601735956346
sg12
F1238845.4683
sg13
Nsba(iGraphics.simplified_new
Scores
p203
(dp204
g10
I55
sg11
F0.4523893691983348
sg12
F1238463.4717
sg13
Nsba(iGraphics.simplified_new
Scores
p205
(dp206
g10
I68
sg11
F0.36803065119883543
sg12
F1256917.6664
sg13
Nsba(iGraphics.simplified_new
Scores
p207
(dp208
g10
I59
sg11
F0.3981835783173623
sg12
F1177319.7449
sg13
Nsba(iGraphics.simplified_new
Scores
p209
(dp210
g10
I48
sg11
F0.5306545682655169
sg12
F1222890.9584
sg13
Nsba(iGraphics.simplified_new
Scores
p211
(dp212
g10
I76
sg11
F0.4749291107369119
sg12
F1266277.0926
sg13
Nsba(iGraphics.simplified_new
Scores
p213
(dp214
g10
I78
sg11
F0.41292285343710156
sg12
F1241973.9161
sg13
Nsba(iGraphics.simplified_new
Scores
p215
(dp216
g10
I27
sg11
F0.4165497966700438
sg12
F1071714.994
sg13
Nsba(iGraphics.simplified_new
Scores
p217
(dp218
g10
I69
sg11
F0.42410621894950173
sg12
F1166336.6812
sg13
Nsba(iGraphics.simplified_new
Scores
p219
(dp220
g10
I66
sg11
F0.469140869058879
sg12
F1242051.499
sg13
Nsba(iGraphics.simplified_new
Scores
p221
(dp222
g10
I64
sg11
F0.4698622978675539
sg12
F1259591.8345
sg13
Nsba(iGraphics.simplified_new
Scores
p223
(dp224
g10
I25
sg11
F0.5609570091302817
sg12
F1175946.5552
sg13
Nsba(iGraphics.simplified_new
Scores
p225
(dp226
g10
I29
sg11
F0.4337000943848967
sg12
F1245019.5743
sg13
Nsba(iGraphics.simplified_new
Scores
p227
(dp228
g10
I96
sg11
F0.44686733326948475
sg12
F1228451.7363
sg13
Nsba(iGraphics.simplified_new
Scores
p229
(dp230
g10
I78
sg11
F0.3233118390481269
sg12
F1270026.2134
sg13
Nsba(iGraphics.simplified_new
Scores
p231
(dp232
g10
I66
sg11
F0.4208472628789915
sg12
F1237156.3611
sg13
Nsbasg52
S'SWAY5'
p233
sbsS'SWAY5_4096'
p234
(iGraphics.simplified_new
SolutionHolder
p235
(dp236
g4
g5
sg6
(lp237
(iGraphics.simplified_new
Scores
p238
(dp239
g10
I48
sg11
F0.44501698801456135
sg12
F1197216.1011
sg13
Nsba(iGraphics.simplified_new
Scores
p240
(dp241
g10
I31
sg11
F0.4946503344716628
sg12
F1233652.8426
sg13
Nsba(iGraphics.simplified_new
Scores
p242
(dp243
g10
I24
sg11
F0.41660608367957475
sg12
F1215668.4378
sg13
Nsba(iGraphics.simplified_new
Scores
p244
(dp245
g10
I33
sg11
F0.48061312624882335
sg12
F1209608.1331
sg13
Nsba(iGraphics.simplified_new
Scores
p246
(dp247
g10
I42
sg11
F0.3806807809188183
sg12
F1154693.7868
sg13
Nsba(iGraphics.simplified_new
Scores
p248
(dp249
g10
I18
sg11
F0.5026105647519595
sg12
F1143184.4499
sg13
Nsba(iGraphics.simplified_new
Scores
p250
(dp251
g10
I63
sg11
F0.39110393872287863
sg12
F1279521.3908
sg13
Nsba(iGraphics.simplified_new
Scores
p252
(dp253
g10
I48
sg11
F0.4270052350432546
sg12
F1218968.8384
sg13
Nsba(iGraphics.simplified_new
Scores
p254
(dp255
g10
I63
sg11
F0.4704095660818357
sg12
F1273097.6943
sg13
Nsba(iGraphics.simplified_new
Scores
p256
(dp257
g10
I32
sg11
F0.4316225758475702
sg12
F1159057.8572
sg13
Nsba(iGraphics.simplified_new
Scores
p258
(dp259
g10
I36
sg11
F0.3946085380507071
sg12
F1145720.624
sg13
Nsba(iGraphics.simplified_new
Scores
p260
(dp261
g10
I32
sg11
F0.48339117308345336
sg12
F1205167.3333
sg13
Nsba(iGraphics.simplified_new
Scores
p262
(dp263
g10
I48
sg11
F0.4369632487227742
sg12
F1218627.1225
sg13
Nsba(iGraphics.simplified_new
Scores
p264
(dp265
g10
I55
sg11
F0.41359347706188176
sg12
F1247652.0278
sg13
Nsba(iGraphics.simplified_new
Scores
p266
(dp267
g10
I63
sg11
F0.45740777943314376
sg12
F1266531.3461
sg13
Nsba(iGraphics.simplified_new
Scores
p268
(dp269
g10
I56
sg11
F0.3657535697449683
sg12
F1243852.4031
sg13
Nsba(iGraphics.simplified_new
Scores
p270
(dp271
g10
I16
sg11
F0.5505513919794484
sg12
F757841.7418
sg13
Nsba(iGraphics.simplified_new
Scores
p272
(dp273
g10
I45
sg11
F0.44198803499463224
sg12
F1195879.5852
sg13
Nsba(iGraphics.simplified_new
Scores
p274
(dp275
g10
I48
sg11
F0.41813957104263133
sg12
F1268294.608
sg13
Nsba(iGraphics.simplified_new
Scores
p276
(dp277
g10
I28
sg11
F0.5757568466166261
sg12
F1224676.8958
sg13
Nsbasg52
S'SWAY5'
p278
sbsS'SWAY5_512'
p279
(iGraphics.simplified_new
SolutionHolder
p280
(dp281
g4
g5
sg6
(lp282
(iGraphics.simplified_new
Scores
p283
(dp284
g10
I15
sg11
F0.5495722741719463
sg12
F1119659.1838
sg13
Nsba(iGraphics.simplified_new
Scores
p285
(dp286
g10
I12
sg11
F0.5275969577575468
sg12
F1065338.23
sg13
Nsba(iGraphics.simplified_new
Scores
p287
(dp288
g10
I16
sg11
F0.5659659072430664
sg12
F1053966.6883
sg13
Nsba(iGraphics.simplified_new
Scores
p289
(dp290
g10
I16
sg11
F0.4171100359306448
sg12
F1209157.8203
sg13
Nsba(iGraphics.simplified_new
Scores
p291
(dp292
g10
I15
sg11
F0.556662256846528
sg12
F1218011.9181
sg13
Nsba(iGraphics.simplified_new
Scores
p293
(dp294
g10
I14
sg11
F0.49890967122488933
sg12
F1183216.0021
sg13
Nsba(iGraphics.simplified_new
Scores
p295
(dp296
g10
I16
sg11
F0.37479610224308035
sg12
F1218366.9202
sg13
Nsba(iGraphics.simplified_new
Scores
p297
(dp298
g10
I12
sg11
F0.5375485767667376
sg12
F1054338.239
sg13
Nsba(iGraphics.simplified_new
Scores
p299
(dp300
g10
I16
sg11
F0.641653967800705
sg12
F1246389.5129
sg13
Nsba(iGraphics.simplified_new
Scores
p301
(dp302
g10
I21
sg11
F0.3631427387754994
sg12
F1172070.132
sg13
Nsba(iGraphics.simplified_new
Scores
p303
(dp304
g10
I16
sg11
F0.5179425324920035
sg12
F1187404.7577
sg13
Nsba(iGraphics.simplified_new
Scores
p305
(dp306
g10
I12
sg11
F0.5524168436955562
sg12
F1141543.9295
sg13
Nsba(iGraphics.simplified_new
Scores
p307
(dp308
g10
I12
sg11
F0.5582899206642759
sg12
F1258389.6667
sg13
Nsba(iGraphics.simplified_new
Scores
p309
(dp310
g10
I16
sg11
F0.4210273657225902
sg12
F1092866.5284
sg13
Nsba(iGraphics.simplified_new
Scores
p311
(dp312
g10
I16
sg11
F0.4186681720247237
sg12
F1186521.2081
sg13
Nsba(iGraphics.simplified_new
Scores
p313
(dp314
g10
I16
sg11
F0.5606642783747082
sg12
F1178422.7035
sg13
Nsba(iGraphics.simplified_new
Scores
p315
(dp316
g10
I16
sg11
F0.591552656617113
sg12
F1112613.9033
sg13
Nsba(iGraphics.simplified_new
Scores
p317
(dp318
g10
I14
sg11
F0.6205522927940511
sg12
F1042911.2855
sg13
Nsba(iGraphics.simplified_new
Scores
p319
(dp320
g10
I16
sg11
F0.4859184269336468
sg12
F809510.2495
sg13
Nsba(iGraphics.simplified_new
Scores
p321
(dp322
g10
I21
sg11
F0.43089458018475246
sg12
F1126187.4345
sg13
Nsbasg52
S'SWAY5'
p323
sbsS'SWAY5_100'
p324
(iGraphics.simplified_new
SolutionHolder
p325
(dp326
g4
g5
sg6
(lp327
(iGraphics.simplified_new
Scores
p328
(dp329
g10
I6
sg11
F0.3881976128257221
sg12
F731608.9672
sg13
Nsba(iGraphics.simplified_new
Scores
p330
(dp331
g10
I7
sg11
F0.6734521117557867
sg12
F734446.5965
sg13
Nsba(iGraphics.simplified_new
Scores
p332
(dp333
g10
I6
sg11
F0.5886118358081781
sg12
F647536.2818
sg13
Nsba(iGraphics.simplified_new
Scores
p334
(dp335
g10
I7
sg11
F0.5858374186621743
sg12
F491675.2479
sg13
Nsba(iGraphics.simplified_new
Scores
p336
(dp337
g10
I6
sg11
F0.6832699232830867
sg12
F608967.9843
sg13
Nsba(iGraphics.simplified_new
Scores
p338
(dp339
g10
I7
sg11
F0.7947503854512421
sg12
F793174.2207
sg13
Nsba(iGraphics.simplified_new
Scores
p340
(dp341
g10
I6
sg11
F0.5597397337653429
sg12
F664624.3285
sg13
Nsba(iGraphics.simplified_new
Scores
p342
(dp343
g10
I7
sg11
F0.5581252213422635
sg12
F707421.7981
sg13
Nsba(iGraphics.simplified_new
Scores
p344
(dp345
g10
I9
sg11
F0.6077047330784439
sg12
F845357.3731
sg13
Nsba(iGraphics.simplified_new
Scores
p346
(dp347
g10
I6
sg11
F0.46308823104526586
sg12
F638361.371
sg13
Nsba(iGraphics.simplified_new
Scores
p348
(dp349
g10
I6
sg11
F0.5730903924022431
sg12
F792535.6642
sg13
Nsba(iGraphics.simplified_new
Scores
p350
(dp351
g10
I6
sg11
F0.6551321099647067
sg12
F674259.8171
sg13
Nsba(iGraphics.simplified_new
Scores
p352
(dp353
g10
I6
sg11
F0.6351878383315063
sg12
F672331.405
sg13
Nsba(iGraphics.simplified_new
Scores
p354
(dp355
g10
I6
sg11
F0.7442581757324722
sg12
F839557.2602
sg13
Nsba(iGraphics.simplified_new
Scores
p356
(dp357
g10
I6
sg11
F0.5977482346500783
sg12
F701542.2312
sg13
Nsba(iGraphics.simplified_new
Scores
p358
(dp359
g10
I5
sg11
F0.5116351315445565
sg12
F665454.2265
sg13
Nsba(iGraphics.simplified_new
Scores
p360
(dp361
g10
I6
sg11
F0.6383315307214291
sg12
F690536.0572
sg13
Nsba(iGraphics.simplified_new
Scores
p362
(dp363
g10
I7
sg11
F0.6332411115686618
sg12
F655494.9779
sg13
Nsba(iGraphics.simplified_new
Scores
p364
(dp365
g10
I9
sg11
F0.6056034135161124
sg12
F754632.5689
sg13
Nsba(iGraphics.simplified_new
Scores
p366
(dp367
g10
I7
sg11
F0.7018865737126246
sg12
F596521.9765
sg13
Nsba(iGraphics.simplified_new
Scores
p368
(dp369
g10
I7
sg11
F0.5648671021245841
sg12
F1135016.1599
sg13
Nsba(iGraphics.simplified_new
Scores
p370
(dp371
g10
I6
sg11
F0.5241329807594426
sg12
F1194981.2847
sg13
Nsba(iGraphics.simplified_new
Scores
p372
(dp373
g10
I7
sg11
F0.6653781079484633
sg12
F915237.265
sg13
Nsba(iGraphics.simplified_new
Scores
p374
(dp375
g10
I6
sg11
F0.7139733989777354
sg12
F1088732.2594
sg13
Nsba(iGraphics.simplified_new
Scores
p376
(dp377
g10
I6
sg11
F0.49202494496629545
sg12
F954354.7288
sg13
Nsba(iGraphics.simplified_new
Scores
p378
(dp379
g10
I6
sg11
F0.6113007423011487
sg12
F1049797.2814
sg13
Nsba(iGraphics.simplified_new
Scores
p380
(dp381
g10
I6
sg11
F0.5304722121506259
sg12
F1085629.8449
sg13
Nsba(iGraphics.simplified_new
Scores
p382
(dp383
g10
I6
sg11
F0.5810306248035312
sg12
F1071166.0571
sg13
Nsba(iGraphics.simplified_new
Scores
p384
(dp385
g10
I6
sg11
F0.6747698466601643
sg12
F904546.8852
sg13
Nsba(iGraphics.simplified_new
Scores
p386
(dp387
g10
I6
sg11
F0.6996560286670195
sg12
F1176839.8545
sg13
Nsba(iGraphics.simplified_new
Scores
p388
(dp389
g10
I6
sg11
F0.6876223187033044
sg12
F1094032.0488
sg13
Nsba(iGraphics.simplified_new
Scores
p390
(dp391
g10
I6
sg11
F0.6028625237339803
sg12
F1114150.4359
sg13
Nsba(iGraphics.simplified_new
Scores
p392
(dp393
g10
I6
sg11
F0.5932694441923052
sg12
F1008990.6917
sg13
Nsba(iGraphics.simplified_new
Scores
p394
(dp395
g10
I6
sg11
F0.7584759925437652
sg12
F1033941.102
sg13
Nsba(iGraphics.simplified_new
Scores
p396
(dp397
g10
I9
sg11
F0.6814089965991998
sg12
F993204.9601
sg13
Nsba(iGraphics.simplified_new
Scores
p398
(dp399
g10
I6
sg11
F0.6590760013994682
sg12
F1079280.8609
sg13
Nsba(iGraphics.simplified_new
Scores
p400
(dp401
g10
I6
sg11
F0.5858256193692767
sg12
F1133285.9447
sg13
Nsba(iGraphics.simplified_new
Scores
p402
(dp403
g10
I8
sg11
F0.5633038945602944
sg12
F1173767.7431
sg13
Nsba(iGraphics.simplified_new
Scores
p404
(dp405
g10
I6
sg11
F0.5215334538978398
sg12
F1166601.9215
sg13
Nsba(iGraphics.simplified_new
Scores
p406
(dp407
g10
I6
sg11
F0.5809178929543342
sg12
F928243.9139
sg13
Nsbasg52
S'SWAY5'
p408
sbsS'NSGAII_100'
p409
(iGraphics.simplified_new
SolutionHolder
p410
(dp411
g4
g5
sg6
(lp412
(iGraphics.simplified_new
Scores
p413
(dp414
g10
I100
sg11
F0.7258112672351998
sg12
F1323780.4843
sg13
Nsba(iGraphics.simplified_new
Scores
p415
(dp416
g10
I100
sg11
F0.5596993013424978
sg12
F1312180.8707
sg13
Nsba(iGraphics.simplified_new
Scores
p417
(dp418
g10
I100
sg11
F0.7012777368286824
sg12
F1326376.4216
sg13
Nsba(iGraphics.simplified_new
Scores
p419
(dp420
g10
I100
sg11
F0.8132252045400228
sg12
F1316723.755
sg13
Nsba(iGraphics.simplified_new
Scores
p421
(dp422
g10
I100
sg11
F0.6493237501542699
sg12
F1319156.1954
sg13
Nsba(iGraphics.simplified_new
Scores
p423
(dp424
g10
I100
sg11
F0.6202046966231363
sg12
F1323010.2408
sg13
Nsba(iGraphics.simplified_new
Scores
p425
(dp426
g10
I100
sg11
F0.6346615843492737
sg12
F1320881.7038
sg13
Nsba(iGraphics.simplified_new
Scores
p427
(dp428
g10
I100
sg11
F0.6717699243841027
sg12
F1311245.9327
sg13
Nsba(iGraphics.simplified_new
Scores
p429
(dp430
g10
I100
sg11
F0.7438094380816747
sg12
F1317008.5296
sg13
Nsba(iGraphics.simplified_new
Scores
p431
(dp432
g10
I100
sg11
F0.6825460485850833
sg12
F1316045.6701
sg13
Nsba(iGraphics.simplified_new
Scores
p433
(dp434
g10
I100
sg11
F0.75230586901874
sg12
F1321356.5786
sg13
Nsba(iGraphics.simplified_new
Scores
p435
(dp436
g10
I100
sg11
F0.6492605745662486
sg12
F1313602.2505
sg13
Nsba(iGraphics.simplified_new
Scores
p437
(dp438
g10
I100
sg11
F0.6219712274766254
sg12
F1317357.9927
sg13
Nsba(iGraphics.simplified_new
Scores
p439
(dp440
g10
I100
sg11
F0.5717632870800763
sg12
F1313407.7939
sg13
Nsba(iGraphics.simplified_new
Scores
p441
(dp442
g10
I100
sg11
F0.6994913264890776
sg12
F1310987.5721
sg13
Nsba(iGraphics.simplified_new
Scores
p443
(dp444
g10
I100
sg11
F0.6708034402051051
sg12
F1319075.1007
sg13
Nsba(iGraphics.simplified_new
Scores
p445
(dp446
g10
I100
sg11
F0.7399755611279262
sg12
F1309105.7433
sg13
Nsba(iGraphics.simplified_new
Scores
p447
(dp448
g10
I100
sg11
F0.8161371219132848
sg12
F1314761.3067
sg13
Nsba(iGraphics.simplified_new
Scores
p449
(dp450
g10
I100
sg11
F0.6297044996088399
sg12
F1314386.9435
sg13
Nsba(iGraphics.simplified_new
Scores
p451
(dp452
g10
I100
sg11
F0.7082020203267452
sg12
F1311764.0288
sg13
Nsbasg52
S'NSGAII'
p453
sbs.
