(dp0
S'SPEA2_100'
p1
(iGraphics.simplified_new
SolutionHolder
p2
(dp3
S'problem'
p4
S'POM3B'
p5
sS'repeats'
p6
(lp7
(iGraphics.simplified_new
Scores
p8
(dp9
S'pfs'
p10
I100
sS'spread'
p11
F0.6873359671674119
sS'hv'
p12
F1312994.729
sS'igd'
p13
Nsba(iGraphics.simplified_new
Scores
p14
(dp15
g10
I100
sg11
F0.6265186169053302
sg12
F1309323.0533
sg13
Nsba(iGraphics.simplified_new
Scores
p16
(dp17
g10
I100
sg11
F0.6119096890667793
sg12
F1303417.6023
sg13
Nsba(iGraphics.simplified_new
Scores
p18
(dp19
g10
I100
sg11
F0.7692854541077744
sg12
F1314476.5899
sg13
Nsba(iGraphics.simplified_new
Scores
p20
(dp21
g10
I100
sg11
F0.648528068845421
sg12
F1313506.5522
sg13
Nsba(iGraphics.simplified_new
Scores
p22
(dp23
g10
I100
sg11
F0.6152609990341521
sg12
F1316579.2074
sg13
Nsba(iGraphics.simplified_new
Scores
p24
(dp25
g10
I100
sg11
F0.7070969992828909
sg12
F1305546.3679
sg13
Nsba(iGraphics.simplified_new
Scores
p26
(dp27
g10
I100
sg11
F0.6101622019575292
sg12
F1303337.723
sg13
Nsba(iGraphics.simplified_new
Scores
p28
(dp29
g10
I100
sg11
F0.7494390533411254
sg12
F1316926.5831
sg13
Nsba(iGraphics.simplified_new
Scores
p30
(dp31
g10
I100
sg11
F0.6509354372257948
sg12
F1302517.601
sg13
Nsba(iGraphics.simplified_new
Scores
p32
(dp33
g10
I100
sg11
F0.6268494147009362
sg12
F1307365.7643
sg13
Nsba(iGraphics.simplified_new
Scores
p34
(dp35
g10
I100
sg11
F0.6705381395503216
sg12
F1317442.1299
sg13
Nsba(iGraphics.simplified_new
Scores
p36
(dp37
g10
I100
sg11
F0.7607026977423527
sg12
F1326179.06
sg13
Nsba(iGraphics.simplified_new
Scores
p38
(dp39
g10
I100
sg11
F0.6818380116227909
sg12
F1309880.5057
sg13
Nsba(iGraphics.simplified_new
Scores
p40
(dp41
g10
I100
sg11
F0.689933766228786
sg12
F1306428.3249
sg13
Nsba(iGraphics.simplified_new
Scores
p42
(dp43
g10
I100
sg11
F0.7767956788742247
sg12
F1310648.2738
sg13
Nsba(iGraphics.simplified_new
Scores
p44
(dp45
g10
I100
sg11
F0.6432583001781437
sg12
F1305620.813
sg13
Nsba(iGraphics.simplified_new
Scores
p46
(dp47
g10
I100
sg11
F0.5402468921028543
sg12
F1300963.6973
sg13
Nsba(iGraphics.simplified_new
Scores
p48
(dp49
g10
I100
sg11
F0.6155353333558892
sg12
F1315571.9846
sg13
Nsba(iGraphics.simplified_new
Scores
p50
(dp51
g10
I100
sg11
F0.6195851987503923
sg12
F1304920.0061
sg13
NsbasS'algorithm'
p52
S'SPEA2'
p53
sbsS'SWAY5_8192'
p54
(iGraphics.simplified_new
SolutionHolder
p55
(dp56
g4
g5
sg6
(lp57
(iGraphics.simplified_new
Scores
p58
(dp59
g10
I24
sg11
F0.508195322883214
sg12
F792519.9679
sg13
Nsba(iGraphics.simplified_new
Scores
p60
(dp61
g10
I23
sg11
F0.5145002793151184
sg12
F1172428.2181
sg13
Nsba(iGraphics.simplified_new
Scores
p62
(dp63
g10
I36
sg11
F0.35672869735157575
sg12
F1254140.4322
sg13
Nsba(iGraphics.simplified_new
Scores
p64
(dp65
g10
I48
sg11
F0.42254975993220867
sg12
F1242540.8162
sg13
Nsba(iGraphics.simplified_new
Scores
p66
(dp67
g10
I63
sg11
F0.42188381683956394
sg12
F1245793.7558
sg13
Nsba(iGraphics.simplified_new
Scores
p68
(dp69
g10
I64
sg11
F0.43599557650707654
sg12
F1223034.8403
sg13
Nsba(iGraphics.simplified_new
Scores
p70
(dp71
g10
I31
sg11
F0.4239586039803695
sg12
F1095549.8782
sg13
Nsba(iGraphics.simplified_new
Scores
p72
(dp73
g10
I63
sg11
F0.4253943525760449
sg12
F1248295.908
sg13
Nsba(iGraphics.simplified_new
Scores
p74
(dp75
g10
I30
sg11
F0.43551849908233775
sg12
F1044013.1044
sg13
Nsba(iGraphics.simplified_new
Scores
p76
(dp77
g10
I63
sg11
F0.4294379750442506
sg12
F1241716.247
sg13
Nsba(iGraphics.simplified_new
Scores
p78
(dp79
g10
I46
sg11
F0.46297429800470635
sg12
F1129561.7014
sg13
Nsba(iGraphics.simplified_new
Scores
p80
(dp81
g10
I72
sg11
F0.41219202882454875
sg12
F1140858.9608
sg13
Nsba(iGraphics.simplified_new
Scores
p82
(dp83
g10
I48
sg11
F0.4585030291259039
sg12
F1172446.8391
sg13
Nsba(iGraphics.simplified_new
Scores
p84
(dp85
g10
I84
sg11
F0.4284413082058972
sg12
F1232969.172
sg13
Nsba(iGraphics.simplified_new
Scores
p86
(dp87
g10
I64
sg11
F0.3717782505303759
sg12
F1191141.7383
sg13
Nsba(iGraphics.simplified_new
Scores
p88
(dp89
g10
I60
sg11
F0.43008080411428706
sg12
F1172454.6418
sg13
Nsba(iGraphics.simplified_new
Scores
p90
(dp91
g10
I76
sg11
F0.3092220134352827
sg12
F1176582.8398
sg13
Nsba(iGraphics.simplified_new
Scores
p92
(dp93
g10
I56
sg11
F0.4434943635107269
sg12
F1277092.6844
sg13
Nsba(iGraphics.simplified_new
Scores
p94
(dp95
g10
I72
sg11
F0.4294939101027476
sg12
F1242881.2417
sg13
Nsba(iGraphics.simplified_new
Scores
p96
(dp97
g10
I32
sg11
F0.46597852019522557
sg12
F1228652.104
sg13
Nsbasg52
S'SWAY5'
p98
sbsS'SWAY5_1024'
p99
(iGraphics.simplified_new
SolutionHolder
p100
(dp101
g4
g5
sg6
(lp102
(iGraphics.simplified_new
Scores
p103
(dp104
g10
I28
sg11
F0.45654671330538454
sg12
F1157574.2732
sg13
Nsba(iGraphics.simplified_new
Scores
p105
(dp106
g10
I24
sg11
F0.42952441348529274
sg12
F1140898.123
sg13
Nsba(iGraphics.simplified_new
Scores
p107
(dp108
g10
I16
sg11
F0.5721090743949228
sg12
F1156642.4095
sg13
Nsba(iGraphics.simplified_new
Scores
p109
(dp110
g10
I31
sg11
F0.41401860989251893
sg12
F1021003.4124
sg13
Nsba(iGraphics.simplified_new
Scores
p111
(dp112
g10
I25
sg11
F0.46654846449926424
sg12
F1164440.025
sg13
Nsba(iGraphics.simplified_new
Scores
p113
(dp114
g10
I24
sg11
F0.4459786479289437
sg12
F1212619.201
sg13
Nsba(iGraphics.simplified_new
Scores
p115
(dp116
g10
I16
sg11
F0.47297680850973073
sg12
F1200102.9504
sg13
Nsba(iGraphics.simplified_new
Scores
p117
(dp118
g10
I28
sg11
F0.4495190539013866
sg12
F1256187.9875
sg13
Nsba(iGraphics.simplified_new
Scores
p119
(dp120
g10
I18
sg11
F0.4507110643607288
sg12
F1210697.7879
sg13
Nsba(iGraphics.simplified_new
Scores
p121
(dp122
g10
I28
sg11
F0.5086922443139779
sg12
F1187530.5454
sg13
Nsba(iGraphics.simplified_new
Scores
p123
(dp124
g10
I24
sg11
F0.5606806928894092
sg12
F1157554.7703
sg13
Nsba(iGraphics.simplified_new
Scores
p125
(dp126
g10
I24
sg11
F0.42126793601841794
sg12
F1224948.8398
sg13
Nsba(iGraphics.simplified_new
Scores
p127
(dp128
g10
I18
sg11
F0.41670343558863315
sg12
F1192963.1186
sg13
Nsba(iGraphics.simplified_new
Scores
p129
(dp130
g10
I16
sg11
F0.4539326420229812
sg12
F1065316.4551
sg13
Nsba(iGraphics.simplified_new
Scores
p131
(dp132
g10
I24
sg11
F0.4497873331373988
sg12
F1130741.8198
sg13
Nsba(iGraphics.simplified_new
Scores
p133
(dp134
g10
I18
sg11
F0.5565335779565592
sg12
F1215752.101
sg13
Nsba(iGraphics.simplified_new
Scores
p135
(dp136
g10
I28
sg11
F0.5072162865256892
sg12
F1253356.2042
sg13
Nsba(iGraphics.simplified_new
Scores
p137
(dp138
g10
I21
sg11
F0.5189856065452572
sg12
F1211800.2287
sg13
Nsba(iGraphics.simplified_new
Scores
p139
(dp140
g10
I16
sg11
F0.5749023518248119
sg12
F1047641.7082
sg13
Nsba(iGraphics.simplified_new
Scores
p141
(dp142
g10
I31
sg11
F0.34372651049191355
sg12
F1205364.3233
sg13
Nsbasg52
S'SWAY5'
p143
sbsS'SWAY5_2048'
p144
(iGraphics.simplified_new
SolutionHolder
p145
(dp146
g4
g5
sg6
(lp147
(iGraphics.simplified_new
Scores
p148
(dp149
g10
I33
sg11
F0.3414501296443567
sg12
F1235794.7614
sg13
Nsba(iGraphics.simplified_new
Scores
p150
(dp151
g10
I27
sg11
F0.5094051382863983
sg12
F1097678.8193
sg13
Nsba(iGraphics.simplified_new
Scores
p152
(dp153
g10
I32
sg11
F0.3667261368825083
sg12
F1160650.1354
sg13
Nsba(iGraphics.simplified_new
Scores
p154
(dp155
g10
I24
sg11
F0.40306277965422355
sg12
F1174763.1129
sg13
Nsba(iGraphics.simplified_new
Scores
p156
(dp157
g10
I24
sg11
F0.4514023154295505
sg12
F1206040.0145
sg13
Nsba(iGraphics.simplified_new
Scores
p158
(dp159
g10
I24
sg11
F0.402447240955333
sg12
F1163015.031
sg13
Nsba(iGraphics.simplified_new
Scores
p160
(dp161
g10
I27
sg11
F0.48371705404851006
sg12
F1122834.413
sg13
Nsba(iGraphics.simplified_new
Scores
p162
(dp163
g10
I16
sg11
F0.5670422592052149
sg12
F1187619.2072
sg13
Nsba(iGraphics.simplified_new
Scores
p164
(dp165
g10
I30
sg11
F0.4494197706491814
sg12
F1200946.6708
sg13
Nsba(iGraphics.simplified_new
Scores
p166
(dp167
g10
I24
sg11
F0.44569354729167826
sg12
F1259130.7826
sg13
Nsba(iGraphics.simplified_new
Scores
p168
(dp169
g10
I28
sg11
F0.5456846899319036
sg12
F1120179.2248
sg13
Nsba(iGraphics.simplified_new
Scores
p170
(dp171
g10
I30
sg11
F0.4917966105194063
sg12
F929338.7841
sg13
Nsba(iGraphics.simplified_new
Scores
p172
(dp173
g10
I32
sg11
F0.5088591008630337
sg12
F1089610.4796
sg13
Nsba(iGraphics.simplified_new
Scores
p174
(dp175
g10
I45
sg11
F0.4145458608253139
sg12
F1135722.199
sg13
Nsba(iGraphics.simplified_new
Scores
p176
(dp177
g10
I32
sg11
F0.4373537067203913
sg12
F999365.5876
sg13
Nsba(iGraphics.simplified_new
Scores
p178
(dp179
g10
I28
sg11
F0.5191534482149519
sg12
F1220898.06
sg13
Nsba(iGraphics.simplified_new
Scores
p180
(dp181
g10
I24
sg11
F0.48242354183226377
sg12
F1137429.9501
sg13
Nsba(iGraphics.simplified_new
Scores
p182
(dp183
g10
I16
sg11
F0.646855316580557
sg12
F1073831.4931
sg13
Nsba(iGraphics.simplified_new
Scores
p184
(dp185
g10
I32
sg11
F0.347779851295831
sg12
F1148626.5603
sg13
Nsba(iGraphics.simplified_new
Scores
p186
(dp187
g10
I25
sg11
F0.5215108020032346
sg12
F1226210.0904
sg13
Nsbasg52
S'SWAY5'
p188
sbsS'SWAY5_10000'
p189
(iGraphics.simplified_new
SolutionHolder
p190
(dp191
g4
g5
sg6
(lp192
(iGraphics.simplified_new
Scores
p193
(dp194
g10
I55
sg11
F0.4199536020368106
sg12
F1235833.5593
sg13
Nsba(iGraphics.simplified_new
Scores
p195
(dp196
g10
I38
sg11
F0.47142378919776456
sg12
F1235232.4133
sg13
Nsba(iGraphics.simplified_new
Scores
p197
(dp198
g10
I88
sg11
F0.3977411897580343
sg12
F1283556.2223
sg13
Nsba(iGraphics.simplified_new
Scores
p199
(dp200
g10
I85
sg11
F0.4259345125240764
sg12
F1035224.1096
sg13
Nsba(iGraphics.simplified_new
Scores
p201
(dp202
g10
I78
sg11
F0.48744410149456635
sg12
F1272056.6009
sg13
Nsba(iGraphics.simplified_new
Scores
p203
(dp204
g10
I82
sg11
F0.39688126148615455
sg12
F1188947.245
sg13
Nsba(iGraphics.simplified_new
Scores
p205
(dp206
g10
I87
sg11
F0.3681198881981297
sg12
F1218396.227
sg13
Nsba(iGraphics.simplified_new
Scores
p207
(dp208
g10
I78
sg11
F0.44300662855257034
sg12
F1266011.3533
sg13
Nsba(iGraphics.simplified_new
Scores
p209
(dp210
g10
I73
sg11
F0.4655009698652964
sg12
F1111570.422
sg13
Nsba(iGraphics.simplified_new
Scores
p211
(dp212
g10
I27
sg11
F0.4855387079496385
sg12
F1211810.406
sg13
Nsba(iGraphics.simplified_new
Scores
p213
(dp214
g10
I76
sg11
F0.3917614190936169
sg12
F1197446.991
sg13
Nsba(iGraphics.simplified_new
Scores
p215
(dp216
g10
I39
sg11
F0.4164824917043584
sg12
F1189398.8603
sg13
Nsba(iGraphics.simplified_new
Scores
p217
(dp218
g10
I56
sg11
F0.4294901056350812
sg12
F1265912.1042
sg13
Nsba(iGraphics.simplified_new
Scores
p219
(dp220
g10
I29
sg11
F0.5785588651029744
sg12
F1027702.9671
sg13
Nsba(iGraphics.simplified_new
Scores
p221
(dp222
g10
I51
sg11
F0.3918648885645296
sg12
F1153898.5819
sg13
Nsba(iGraphics.simplified_new
Scores
p223
(dp224
g10
I68
sg11
F0.46600135612772614
sg12
F1244462.1406
sg13
Nsba(iGraphics.simplified_new
Scores
p225
(dp226
g10
I59
sg11
F0.40054014568451585
sg12
F1133455.0278
sg13
Nsba(iGraphics.simplified_new
Scores
p227
(dp228
g10
I78
sg11
F0.4771514229837593
sg12
F1166827.7655
sg13
Nsba(iGraphics.simplified_new
Scores
p229
(dp230
g10
I68
sg11
F0.4563737348629401
sg12
F1131643.8635
sg13
Nsba(iGraphics.simplified_new
Scores
p231
(dp232
g10
I40
sg11
F0.45372103424600274
sg12
F1083770.2285
sg13
Nsbasg52
S'SWAY5'
p233
sbsS'SWAY5_4096'
p234
(iGraphics.simplified_new
SolutionHolder
p235
(dp236
g4
g5
sg6
(lp237
(iGraphics.simplified_new
Scores
p238
(dp239
g10
I32
sg11
F0.3950262825827556
sg12
F1201277.6673
sg13
Nsba(iGraphics.simplified_new
Scores
p240
(dp241
g10
I56
sg11
F0.38914118686864807
sg12
F1107088.0049
sg13
Nsba(iGraphics.simplified_new
Scores
p242
(dp243
g10
I60
sg11
F0.38609972725736647
sg12
F1253528.8539
sg13
Nsba(iGraphics.simplified_new
Scores
p244
(dp245
g10
I36
sg11
F0.4826199817708607
sg12
F1175553.8688
sg13
Nsba(iGraphics.simplified_new
Scores
p246
(dp247
g10
I42
sg11
F0.47769222729510696
sg12
F1065585.0078
sg13
Nsba(iGraphics.simplified_new
Scores
p248
(dp249
g10
I56
sg11
F0.4784815516806199
sg12
F1242455.1152
sg13
Nsba(iGraphics.simplified_new
Scores
p250
(dp251
g10
I32
sg11
F0.42415759999231895
sg12
F1105815.3118
sg13
Nsba(iGraphics.simplified_new
Scores
p252
(dp253
g10
I18
sg11
F0.6206444317701593
sg12
F1098584.2374
sg13
Nsba(iGraphics.simplified_new
Scores
p254
(dp255
g10
I48
sg11
F0.4003337853826445
sg12
F1179198.2704
sg13
Nsba(iGraphics.simplified_new
Scores
p256
(dp257
g10
I32
sg11
F0.4687288490976028
sg12
F1178200.4405
sg13
Nsba(iGraphics.simplified_new
Scores
p258
(dp259
g10
I32
sg11
F0.523405361312158
sg12
F988484.4208
sg13
Nsba(iGraphics.simplified_new
Scores
p260
(dp261
g10
I24
sg11
F0.5416982772328324
sg12
F1224773.2523
sg13
Nsba(iGraphics.simplified_new
Scores
p262
(dp263
g10
I48
sg11
F0.46370441155608044
sg12
F1230296.535
sg13
Nsba(iGraphics.simplified_new
Scores
p264
(dp265
g10
I63
sg11
F0.510202990150241
sg12
F1243670.2793
sg13
Nsba(iGraphics.simplified_new
Scores
p266
(dp267
g10
I32
sg11
F0.5486174646399393
sg12
F1016535.6042
sg13
Nsba(iGraphics.simplified_new
Scores
p268
(dp269
g10
I23
sg11
F0.4273705837560429
sg12
F888075.4297
sg13
Nsba(iGraphics.simplified_new
Scores
p270
(dp271
g10
I60
sg11
F0.43565753719345246
sg12
F1260324.4803
sg13
Nsba(iGraphics.simplified_new
Scores
p272
(dp273
g10
I63
sg11
F0.4750778240192684
sg12
F1108373.4327
sg13
Nsba(iGraphics.simplified_new
Scores
p274
(dp275
g10
I63
sg11
F0.4701764128616901
sg12
F1238847.4468
sg13
Nsba(iGraphics.simplified_new
Scores
p276
(dp277
g10
I56
sg11
F0.47102609990258937
sg12
F1150372.6025
sg13
Nsbasg52
S'SWAY5'
p278
sbsS'SWAY5_512'
p279
(iGraphics.simplified_new
SolutionHolder
p280
(dp281
g4
g5
sg6
(lp282
(iGraphics.simplified_new
Scores
p283
(dp284
g10
I16
sg11
F0.4045793820837379
sg12
F1143652.8738
sg13
Nsba(iGraphics.simplified_new
Scores
p285
(dp286
g10
I16
sg11
F0.4341338397183892
sg12
F1184130.6101
sg13
Nsba(iGraphics.simplified_new
Scores
p287
(dp288
g10
I16
sg11
F0.48739302278263713
sg12
F1093981.4031
sg13
Nsba(iGraphics.simplified_new
Scores
p289
(dp290
g10
I14
sg11
F0.3742638122586878
sg12
F1093653.8866
sg13
Nsba(iGraphics.simplified_new
Scores
p291
(dp292
g10
I16
sg11
F0.4743914920661311
sg12
F1206842.2317
sg13
Nsba(iGraphics.simplified_new
Scores
p293
(dp294
g10
I16
sg11
F0.5011582475532481
sg12
F1042562.2132
sg13
Nsba(iGraphics.simplified_new
Scores
p295
(dp296
g10
I12
sg11
F0.42685164076364984
sg12
F1158608.7478
sg13
Nsba(iGraphics.simplified_new
Scores
p297
(dp298
g10
I14
sg11
F0.516122052099635
sg12
F927673.0831
sg13
Nsba(iGraphics.simplified_new
Scores
p299
(dp300
g10
I18
sg11
F0.5027741921378857
sg12
F1081821.0828
sg13
Nsba(iGraphics.simplified_new
Scores
p301
(dp302
g10
I12
sg11
F0.49585330689440543
sg12
F1112947.9514
sg13
Nsba(iGraphics.simplified_new
Scores
p303
(dp304
g10
I16
sg11
F0.39295991492042337
sg12
F1154291.1941
sg13
Nsba(iGraphics.simplified_new
Scores
p305
(dp306
g10
I21
sg11
F0.5477231883617278
sg12
F1162448.8612
sg13
Nsba(iGraphics.simplified_new
Scores
p307
(dp308
g10
I21
sg11
F0.549634942449517
sg12
F1188417.6344
sg13
Nsba(iGraphics.simplified_new
Scores
p309
(dp310
g10
I16
sg11
F0.49814284924286595
sg12
F1088260.8586
sg13
Nsba(iGraphics.simplified_new
Scores
p311
(dp312
g10
I18
sg11
F0.3949235884369665
sg12
F1149439.1746
sg13
Nsba(iGraphics.simplified_new
Scores
p313
(dp314
g10
I15
sg11
F0.4598149942075262
sg12
F1044671.8889
sg13
Nsba(iGraphics.simplified_new
Scores
p315
(dp316
g10
I12
sg11
F0.484155320061035
sg12
F1135725.233
sg13
Nsba(iGraphics.simplified_new
Scores
p317
(dp318
g10
I12
sg11
F0.5787127596034777
sg12
F820304.8701
sg13
Nsba(iGraphics.simplified_new
Scores
p319
(dp320
g10
I15
sg11
F0.5509736037138553
sg12
F1033639.2977
sg13
Nsba(iGraphics.simplified_new
Scores
p321
(dp322
g10
I16
sg11
F0.4220832021212363
sg12
F993105.11
sg13
Nsbasg52
S'SWAY5'
p323
sbsS'SWAY5_100'
p324
(iGraphics.simplified_new
SolutionHolder
p325
(dp326
g4
g5
sg6
(lp327
(iGraphics.simplified_new
Scores
p328
(dp329
g10
I6
sg11
F0.7875682008228391
sg12
F1070130.1915
sg13
Nsba(iGraphics.simplified_new
Scores
p330
(dp331
g10
I6
sg11
F0.7301900813578412
sg12
F1076904.2021
sg13
Nsba(iGraphics.simplified_new
Scores
p332
(dp333
g10
I6
sg11
F0.5099711261474849
sg12
F1124150.7902
sg13
Nsba(iGraphics.simplified_new
Scores
p334
(dp335
g10
I6
sg11
F0.6582855732720594
sg12
F1067975.1221
sg13
Nsba(iGraphics.simplified_new
Scores
p336
(dp337
g10
I6
sg11
F0.6354262109819336
sg12
F1049428.7056
sg13
Nsba(iGraphics.simplified_new
Scores
p338
(dp339
g10
I6
sg11
F0.7199075963530841
sg12
F894680.6283
sg13
Nsba(iGraphics.simplified_new
Scores
p340
(dp341
g10
I6
sg11
F0.7893089481861219
sg12
F994405.5123
sg13
Nsba(iGraphics.simplified_new
Scores
p342
(dp343
g10
I6
sg11
F0.5870576289852429
sg12
F1060638.2219
sg13
Nsba(iGraphics.simplified_new
Scores
p344
(dp345
g10
I9
sg11
F0.5154201846508449
sg12
F918329.2561
sg13
Nsba(iGraphics.simplified_new
Scores
p346
(dp347
g10
I7
sg11
F0.6507206747583631
sg12
F872334.5318
sg13
Nsba(iGraphics.simplified_new
Scores
p348
(dp349
g10
I6
sg11
F0.6904891505696904
sg12
F902743.0851
sg13
Nsba(iGraphics.simplified_new
Scores
p350
(dp351
g10
I9
sg11
F0.5962944447633022
sg12
F1038962.7969
sg13
Nsba(iGraphics.simplified_new
Scores
p352
(dp353
g10
I7
sg11
F0.49793793195295416
sg12
F932694.412
sg13
Nsba(iGraphics.simplified_new
Scores
p354
(dp355
g10
I6
sg11
F0.7119086972571584
sg12
F989502.4923
sg13
Nsba(iGraphics.simplified_new
Scores
p356
(dp357
g10
I9
sg11
F0.6605078596383589
sg12
F657710.0768
sg13
Nsba(iGraphics.simplified_new
Scores
p358
(dp359
g10
I5
sg11
F0.6697442963146241
sg12
F881312.5732
sg13
Nsba(iGraphics.simplified_new
Scores
p360
(dp361
g10
I6
sg11
F0.5952652324344802
sg12
F1047058.5236
sg13
Nsba(iGraphics.simplified_new
Scores
p362
(dp363
g10
I6
sg11
F0.6447469401912531
sg12
F1035815.5978
sg13
Nsba(iGraphics.simplified_new
Scores
p364
(dp365
g10
I6
sg11
F0.577020097395924
sg12
F1060518.8338
sg13
Nsba(iGraphics.simplified_new
Scores
p366
(dp367
g10
I7
sg11
F0.5810180498848802
sg12
F1158412.3408
sg13
Nsbasg52
S'SWAY5'
p368
sbsS'NSGAII_100'
p369
(iGraphics.simplified_new
SolutionHolder
p370
(dp371
g4
g5
sg6
(lp372
(iGraphics.simplified_new
Scores
p373
(dp374
g10
I100
sg11
F0.6804429385571469
sg12
F1319276.073
sg13
Nsba(iGraphics.simplified_new
Scores
p375
(dp376
g10
I100
sg11
F0.6201382532802627
sg12
F1310347.1651
sg13
Nsba(iGraphics.simplified_new
Scores
p377
(dp378
g10
I100
sg11
F0.6892502331972211
sg12
F1327712.0753
sg13
Nsba(iGraphics.simplified_new
Scores
p379
(dp380
g10
I100
sg11
F0.6773709938956536
sg12
F1314079.9204
sg13
Nsba(iGraphics.simplified_new
Scores
p381
(dp382
g10
I100
sg11
F0.7140884577814052
sg12
F1305697.6611
sg13
Nsba(iGraphics.simplified_new
Scores
p383
(dp384
g10
I100
sg11
F0.5310665190027064
sg12
F1302514.8331
sg13
Nsba(iGraphics.simplified_new
Scores
p385
(dp386
g10
I100
sg11
F0.684652357720106
sg12
F1300848.5944
sg13
Nsba(iGraphics.simplified_new
Scores
p387
(dp388
g10
I100
sg11
F0.6291706668113275
sg12
F1312982.7104
sg13
Nsba(iGraphics.simplified_new
Scores
p389
(dp390
g10
I100
sg11
F0.6491455789346784
sg12
F1318026.894
sg13
Nsba(iGraphics.simplified_new
Scores
p391
(dp392
g10
I100
sg11
F0.7008549427556159
sg12
F1307639.3291
sg13
Nsba(iGraphics.simplified_new
Scores
p393
(dp394
g10
I100
sg11
F0.5529142103656255
sg12
F1310705.6318
sg13
Nsba(iGraphics.simplified_new
Scores
p395
(dp396
g10
I100
sg11
F0.736991546334923
sg12
F1310668.9384
sg13
Nsba(iGraphics.simplified_new
Scores
p397
(dp398
g10
I100
sg11
F0.6221212481138095
sg12
F1309540.3466
sg13
Nsba(iGraphics.simplified_new
Scores
p399
(dp400
g10
I100
sg11
F0.7494766377036157
sg12
F1308623.7663
sg13
Nsba(iGraphics.simplified_new
Scores
p401
(dp402
g10
I100
sg11
F0.6249669977622723
sg12
F1306508.6893
sg13
Nsba(iGraphics.simplified_new
Scores
p403
(dp404
g10
I100
sg11
F0.710294607450184
sg12
F1312483.3797
sg13
Nsba(iGraphics.simplified_new
Scores
p405
(dp406
g10
I100
sg11
F0.5592074957448654
sg12
F1306609.5514
sg13
Nsba(iGraphics.simplified_new
Scores
p407
(dp408
g10
I100
sg11
F0.6372294540735325
sg12
F1307821.1205
sg13
Nsba(iGraphics.simplified_new
Scores
p409
(dp410
g10
I100
sg11
F0.6768612652679535
sg12
F1305274.7876
sg13
Nsba(iGraphics.simplified_new
Scores
p411
(dp412
g10
I100
sg11
F0.6361621115566217
sg12
F1314479.6663
sg13
Nsbasg52
S'NSGAII'
p413
sbs.