(dp0
S'SPEA2_100'
p1
(iGraphics.simplified_new
SolutionHolder
p2
(dp3
S'problem'
p4
S'xomo_flight'
p5
sS'repeats'
p6
(lp7
(iGraphics.simplified_new
Scores
p8
(dp9
S'pfs'
p10
I100
sS'spread'
p11
F0.605028118925421
sS'hv'
p12
F145968073.105
sS'igd'
p13
Nsba(iGraphics.simplified_new
Scores
p14
(dp15
g10
I100
sg11
F0.684674526567307
sg12
F143724069.1885
sg13
Nsba(iGraphics.simplified_new
Scores
p16
(dp17
g10
I100
sg11
F0.6804905492785828
sg12
F141815915.621
sg13
Nsba(iGraphics.simplified_new
Scores
p18
(dp19
g10
I100
sg11
F0.6718478000454966
sg12
F144639332.473
sg13
Nsba(iGraphics.simplified_new
Scores
p20
(dp21
g10
I100
sg11
F0.7885315814105344
sg12
F143411049.4156
sg13
Nsba(iGraphics.simplified_new
Scores
p22
(dp23
g10
I100
sg11
F0.7064617429249681
sg12
F143091103.7318
sg13
Nsba(iGraphics.simplified_new
Scores
p24
(dp25
g10
I100
sg11
F0.685271070456946
sg12
F144193254.1968
sg13
Nsba(iGraphics.simplified_new
Scores
p26
(dp27
g10
I100
sg11
F0.6562428764015956
sg12
F142996637.8548
sg13
Nsba(iGraphics.simplified_new
Scores
p28
(dp29
g10
I100
sg11
F0.6638110054490968
sg12
F142877673.5967
sg13
Nsba(iGraphics.simplified_new
Scores
p30
(dp31
g10
I100
sg11
F0.6765747175368823
sg12
F142360868.3143
sg13
Nsba(iGraphics.simplified_new
Scores
p32
(dp33
g10
I100
sg11
F0.6990666620877597
sg12
F142502781.4695
sg13
Nsba(iGraphics.simplified_new
Scores
p34
(dp35
g10
I100
sg11
F0.6804997015652432
sg12
F144885744.4334
sg13
Nsba(iGraphics.simplified_new
Scores
p36
(dp37
g10
I100
sg11
F0.7126072544000174
sg12
F143568518.2364
sg13
Nsba(iGraphics.simplified_new
Scores
p38
(dp39
g10
I100
sg11
F0.6786405147905921
sg12
F142418916.0824
sg13
Nsba(iGraphics.simplified_new
Scores
p40
(dp41
g10
I100
sg11
F0.6596116003514915
sg12
F143653770.9422
sg13
Nsba(iGraphics.simplified_new
Scores
p42
(dp43
g10
I100
sg11
F0.7522789433681685
sg12
F142812326.6885
sg13
Nsba(iGraphics.simplified_new
Scores
p44
(dp45
g10
I100
sg11
F0.6543282902783396
sg12
F143980647.5512
sg13
Nsba(iGraphics.simplified_new
Scores
p46
(dp47
g10
I100
sg11
F0.6854094823552752
sg12
F142675857.791
sg13
Nsba(iGraphics.simplified_new
Scores
p48
(dp49
g10
I100
sg11
F0.7100462216765758
sg12
F144278609.1697
sg13
Nsba(iGraphics.simplified_new
Scores
p50
(dp51
g10
I100
sg11
F0.736502672899171
sg12
F142988532.7103
sg13
NsbasS'algorithm'
p52
S'SPEA2'
p53
sbsS'SWAY5_8192'
p54
(iGraphics.simplified_new
SolutionHolder
p55
(dp56
g4
g5
sg6
(lp57
(iGraphics.simplified_new
Scores
p58
(dp59
g10
I84
sg11
F0.49285110395228543
sg12
F132787888.3377
sg13
Nsba(iGraphics.simplified_new
Scores
p60
(dp61
g10
I63
sg11
F0.5092348056688827
sg12
F143775825.1529
sg13
Nsba(iGraphics.simplified_new
Scores
p62
(dp63
g10
I60
sg11
F0.4117541960255259
sg12
F131972435.4293
sg13
Nsba(iGraphics.simplified_new
Scores
p64
(dp65
g10
I47
sg11
F0.44497528208671894
sg12
F133112203.4671
sg13
Nsba(iGraphics.simplified_new
Scores
p66
(dp67
g10
I84
sg11
F0.39552165111293264
sg12
F137122716.6729
sg13
Nsba(iGraphics.simplified_new
Scores
p68
(dp69
g10
I48
sg11
F0.4479167475978709
sg12
F139069821.6805
sg13
Nsba(iGraphics.simplified_new
Scores
p70
(dp71
g10
I56
sg11
F0.48169245419322904
sg12
F127730751.8571
sg13
Nsba(iGraphics.simplified_new
Scores
p72
(dp73
g10
I63
sg11
F0.4614335742862175
sg12
F130041120.6917
sg13
Nsba(iGraphics.simplified_new
Scores
p74
(dp75
g10
I56
sg11
F0.43580551709032017
sg12
F130263830.7288
sg13
Nsba(iGraphics.simplified_new
Scores
p76
(dp77
g10
I90
sg11
F0.43202577830455835
sg12
F136674640.5512
sg13
Nsba(iGraphics.simplified_new
Scores
p78
(dp79
g10
I23
sg11
F0.4689735885196786
sg12
F119286212.1993
sg13
Nsba(iGraphics.simplified_new
Scores
p80
(dp81
g10
I36
sg11
F0.44737842748341855
sg12
F136416787.7795
sg13
Nsba(iGraphics.simplified_new
Scores
p82
(dp83
g10
I49
sg11
F0.4514486304949972
sg12
F128994811.796
sg13
Nsba(iGraphics.simplified_new
Scores
p84
(dp85
g10
I32
sg11
F0.4798848787567983
sg12
F130082027.6905
sg13
Nsba(iGraphics.simplified_new
Scores
p86
(dp87
g10
I31
sg11
F0.43565877416863136
sg12
F134298343.6634
sg13
Nsba(iGraphics.simplified_new
Scores
p88
(dp89
g10
I64
sg11
F0.3859086515760873
sg12
F131286868.1083
sg13
Nsba(iGraphics.simplified_new
Scores
p90
(dp91
g10
I64
sg11
F0.4857467011807153
sg12
F135345976.7932
sg13
Nsba(iGraphics.simplified_new
Scores
p92
(dp93
g10
I48
sg11
F0.40410881747975214
sg12
F136895961.6515
sg13
Nsba(iGraphics.simplified_new
Scores
p94
(dp95
g10
I64
sg11
F0.41781023589057836
sg12
F137662973.9593
sg13
Nsba(iGraphics.simplified_new
Scores
p96
(dp97
g10
I56
sg11
F0.43232385813664526
sg12
F130529853.4502
sg13
Nsbasg52
S'SWAY5'
p98
sbsS'SWAY5_1024'
p99
(iGraphics.simplified_new
SolutionHolder
p100
(dp101
g4
g5
sg6
(lp102
(iGraphics.simplified_new
Scores
p103
(dp104
g10
I31
sg11
F0.5123659203620939
sg12
F132075214.3487
sg13
Nsba(iGraphics.simplified_new
Scores
p105
(dp106
g10
I28
sg11
F0.504345393995392
sg12
F130040177.9958
sg13
Nsba(iGraphics.simplified_new
Scores
p107
(dp108
g10
I16
sg11
F0.5807231425955646
sg12
F119605318.2595
sg13
Nsba(iGraphics.simplified_new
Scores
p109
(dp110
g10
I16
sg11
F0.4823212305644314
sg12
F130328764.0259
sg13
Nsba(iGraphics.simplified_new
Scores
p111
(dp112
g10
I16
sg11
F0.6382232926717757
sg12
F113142015.152
sg13
Nsba(iGraphics.simplified_new
Scores
p113
(dp114
g10
I28
sg11
F0.45573260052488973
sg12
F131966281.2187
sg13
Nsba(iGraphics.simplified_new
Scores
p115
(dp116
g10
I28
sg11
F0.4789123211061979
sg12
F133270219.788
sg13
Nsba(iGraphics.simplified_new
Scores
p117
(dp118
g10
I21
sg11
F0.4645368760909353
sg12
F138130248.3391
sg13
Nsba(iGraphics.simplified_new
Scores
p119
(dp120
g10
I16
sg11
F0.5510322769459056
sg12
F120162517.1671
sg13
Nsba(iGraphics.simplified_new
Scores
p121
(dp122
g10
I16
sg11
F0.49049128126034297
sg12
F113456117.0229
sg13
Nsba(iGraphics.simplified_new
Scores
p123
(dp124
g10
I28
sg11
F0.4623860350005381
sg12
F133345118.1378
sg13
Nsba(iGraphics.simplified_new
Scores
p125
(dp126
g10
I18
sg11
F0.4993476831243716
sg12
F117549049.7677
sg13
Nsba(iGraphics.simplified_new
Scores
p127
(dp128
g10
I16
sg11
F0.7002759724501174
sg12
F125652645.6537
sg13
Nsba(iGraphics.simplified_new
Scores
p129
(dp130
g10
I16
sg11
F0.589356151614829
sg12
F137206912.1026
sg13
Nsba(iGraphics.simplified_new
Scores
p131
(dp132
g10
I31
sg11
F0.3838688825872474
sg12
F128609104.3337
sg13
Nsba(iGraphics.simplified_new
Scores
p133
(dp134
g10
I16
sg11
F0.6899419922102316
sg12
F127464138.5375
sg13
Nsba(iGraphics.simplified_new
Scores
p135
(dp136
g10
I16
sg11
F0.5666727692472665
sg12
F134988593.4419
sg13
Nsba(iGraphics.simplified_new
Scores
p137
(dp138
g10
I28
sg11
F0.5094664470195839
sg12
F127199378.8431
sg13
Nsba(iGraphics.simplified_new
Scores
p139
(dp140
g10
I28
sg11
F0.5368679450012552
sg12
F130147842.1057
sg13
Nsba(iGraphics.simplified_new
Scores
p141
(dp142
g10
I16
sg11
F0.5433121810221175
sg12
F124487660.1728
sg13
Nsbasg52
S'SWAY5'
p143
sbsS'SWAY5_2048'
p144
(iGraphics.simplified_new
SolutionHolder
p145
(dp146
g4
g5
sg6
(lp147
(iGraphics.simplified_new
Scores
p148
(dp149
g10
I24
sg11
F0.44231463320066283
sg12
F129170864.9411
sg13
Nsba(iGraphics.simplified_new
Scores
p150
(dp151
g10
I24
sg11
F0.5110147907708469
sg12
F122847794.1231
sg13
Nsba(iGraphics.simplified_new
Scores
p152
(dp153
g10
I32
sg11
F0.5642220637677943
sg12
F138047618.8059
sg13
Nsba(iGraphics.simplified_new
Scores
p154
(dp155
g10
I27
sg11
F0.5063438523146792
sg12
F124156060.1526
sg13
Nsba(iGraphics.simplified_new
Scores
p156
(dp157
g10
I24
sg11
F0.5166527893168628
sg12
F126401496.8534
sg13
Nsba(iGraphics.simplified_new
Scores
p158
(dp159
g10
I28
sg11
F0.5788497019876665
sg12
F130789739.4874
sg13
Nsba(iGraphics.simplified_new
Scores
p160
(dp161
g10
I24
sg11
F0.5031347590521434
sg12
F131689086.1891
sg13
Nsba(iGraphics.simplified_new
Scores
p162
(dp163
g10
I31
sg11
F0.48562524025020043
sg12
F126941099.2175
sg13
Nsba(iGraphics.simplified_new
Scores
p164
(dp165
g10
I42
sg11
F0.462937504235267
sg12
F123448610.348
sg13
Nsba(iGraphics.simplified_new
Scores
p166
(dp167
g10
I30
sg11
F0.48844679130226354
sg12
F116775945.4808
sg13
Nsba(iGraphics.simplified_new
Scores
p168
(dp169
g10
I39
sg11
F0.5004073803387495
sg12
F127605664.4058
sg13
Nsba(iGraphics.simplified_new
Scores
p170
(dp171
g10
I31
sg11
F0.4452565507540004
sg12
F119990959.7894
sg13
Nsba(iGraphics.simplified_new
Scores
p172
(dp173
g10
I24
sg11
F0.5625649823352001
sg12
F130405447.0297
sg13
Nsba(iGraphics.simplified_new
Scores
p174
(dp175
g10
I31
sg11
F0.39324077388356493
sg12
F118214183.2001
sg13
Nsba(iGraphics.simplified_new
Scores
p176
(dp177
g10
I28
sg11
F0.3413000392919537
sg12
F123231633.4704
sg13
Nsba(iGraphics.simplified_new
Scores
p178
(dp179
g10
I21
sg11
F0.428811725248301
sg12
F119800718.2815
sg13
Nsba(iGraphics.simplified_new
Scores
p180
(dp181
g10
I24
sg11
F0.4224165126121481
sg12
F132740519.9491
sg13
Nsba(iGraphics.simplified_new
Scores
p182
(dp183
g10
I24
sg11
F0.3485184741728137
sg12
F124412883.1292
sg13
Nsba(iGraphics.simplified_new
Scores
p184
(dp185
g10
I31
sg11
F0.5456244011385427
sg12
F136522385.9557
sg13
Nsba(iGraphics.simplified_new
Scores
p186
(dp187
g10
I31
sg11
F0.49604515761323364
sg12
F128424678.4768
sg13
Nsbasg52
S'SWAY5'
p188
sbsS'SWAY5_10000'
p189
(iGraphics.simplified_new
SolutionHolder
p190
(dp191
g4
g5
sg6
(lp192
(iGraphics.simplified_new
Scores
p193
(dp194
g10
I78
sg11
F0.4018248360381927
sg12
F139986407.6575
sg13
Nsba(iGraphics.simplified_new
Scores
p195
(dp196
g10
I78
sg11
F0.47357590687591594
sg12
F133466148.6918
sg13
Nsba(iGraphics.simplified_new
Scores
p197
(dp198
g10
I58
sg11
F0.44811990035375165
sg12
F125796859.1758
sg13
Nsba(iGraphics.simplified_new
Scores
p199
(dp200
g10
I68
sg11
F0.43616475222509676
sg12
F131280082.2303
sg13
Nsba(iGraphics.simplified_new
Scores
p201
(dp202
g10
I39
sg11
F0.46595256226307197
sg12
F131636058.1872
sg13
Nsba(iGraphics.simplified_new
Scores
p203
(dp204
g10
I44
sg11
F0.44833869572018553
sg12
F142476028.113
sg13
Nsba(iGraphics.simplified_new
Scores
p205
(dp206
g10
I78
sg11
F0.5169299176560788
sg12
F131975599.806
sg13
Nsba(iGraphics.simplified_new
Scores
p207
(dp208
g10
I58
sg11
F0.43967567235904786
sg12
F141396238.0013
sg13
Nsba(iGraphics.simplified_new
Scores
p209
(dp210
g10
I32
sg11
F0.49003248542549477
sg12
F127046036.9213
sg13
Nsba(iGraphics.simplified_new
Scores
p211
(dp212
g10
I34
sg11
F0.546177843438089
sg12
F121357626.913
sg13
Nsba(iGraphics.simplified_new
Scores
p213
(dp214
g10
I88
sg11
F0.500444245875887
sg12
F136656834.5942
sg13
Nsba(iGraphics.simplified_new
Scores
p215
(dp216
g10
I88
sg11
F0.42743970907987056
sg12
F137044658.7534
sg13
Nsba(iGraphics.simplified_new
Scores
p217
(dp218
g10
I78
sg11
F0.4186642173450566
sg12
F134896748.9156
sg13
Nsba(iGraphics.simplified_new
Scores
p219
(dp220
g10
I51
sg11
F0.45621272996162443
sg12
F129103421.1156
sg13
Nsba(iGraphics.simplified_new
Scores
p221
(dp222
g10
I58
sg11
F0.5047841189832449
sg12
F133527064.1111
sg13
Nsba(iGraphics.simplified_new
Scores
p223
(dp224
g10
I27
sg11
F0.392963509569644
sg12
F133801016.0047
sg13
Nsba(iGraphics.simplified_new
Scores
p225
(dp226
g10
I66
sg11
F0.4450609515019074
sg12
F134067988.8604
sg13
Nsba(iGraphics.simplified_new
Scores
p227
(dp228
g10
I51
sg11
F0.47947827389067027
sg12
F132313460.6237
sg13
Nsba(iGraphics.simplified_new
Scores
p229
(dp230
g10
I68
sg11
F0.41773859472523767
sg12
F134770051.1105
sg13
Nsba(iGraphics.simplified_new
Scores
p231
(dp232
g10
I78
sg11
F0.45037739510744446
sg12
F138135474.8677
sg13
Nsbasg52
S'SWAY5'
p233
sbsS'SWAY5_4096'
p234
(iGraphics.simplified_new
SolutionHolder
p235
(dp236
g4
g5
sg6
(lp237
(iGraphics.simplified_new
Scores
p238
(dp239
g10
I33
sg11
F0.48787247527182714
sg12
F131952036.9057
sg13
Nsba(iGraphics.simplified_new
Scores
p240
(dp241
g10
I16
sg11
F0.4438389693656473
sg12
F128789787.836
sg13
Nsba(iGraphics.simplified_new
Scores
p242
(dp243
g10
I32
sg11
F0.4415839547813812
sg12
F127341971.5124
sg13
Nsba(iGraphics.simplified_new
Scores
p244
(dp245
g10
I39
sg11
F0.5228132818795147
sg12
F129660162.3474
sg13
Nsba(iGraphics.simplified_new
Scores
p246
(dp247
g10
I24
sg11
F0.5274538538442767
sg12
F119236549.287
sg13
Nsba(iGraphics.simplified_new
Scores
p248
(dp249
g10
I63
sg11
F0.4523089726258031
sg12
F130116608.5468
sg13
Nsba(iGraphics.simplified_new
Scores
p250
(dp251
g10
I42
sg11
F0.4728584535545317
sg12
F129386921.0904
sg13
Nsba(iGraphics.simplified_new
Scores
p252
(dp253
g10
I32
sg11
F0.4880081606425655
sg12
F130326907.753
sg13
Nsba(iGraphics.simplified_new
Scores
p254
(dp255
g10
I32
sg11
F0.5096621444018861
sg12
F134710762.7121
sg13
Nsba(iGraphics.simplified_new
Scores
p256
(dp257
g10
I36
sg11
F0.49946232924621164
sg12
F134573966.2365
sg13
Nsba(iGraphics.simplified_new
Scores
p258
(dp259
g10
I48
sg11
F0.4358458426243541
sg12
F132806365.957
sg13
Nsba(iGraphics.simplified_new
Scores
p260
(dp261
g10
I20
sg11
F0.43035318181662446
sg12
F128904249.2488
sg13
Nsba(iGraphics.simplified_new
Scores
p262
(dp263
g10
I32
sg11
F0.567018777175789
sg12
F126005860.6929
sg13
Nsba(iGraphics.simplified_new
Scores
p264
(dp265
g10
I42
sg11
F0.5169869083691688
sg12
F130893090.6108
sg13
Nsba(iGraphics.simplified_new
Scores
p266
(dp267
g10
I32
sg11
F0.4791106133939656
sg12
F127823756.0407
sg13
Nsba(iGraphics.simplified_new
Scores
p268
(dp269
g10
I53
sg11
F0.4408311577824379
sg12
F132772622.9443
sg13
Nsba(iGraphics.simplified_new
Scores
p270
(dp271
g10
I42
sg11
F0.5038303968055602
sg12
F133099450.2852
sg13
Nsba(iGraphics.simplified_new
Scores
p272
(dp273
g10
I48
sg11
F0.5271115756677005
sg12
F134962390.36
sg13
Nsba(iGraphics.simplified_new
Scores
p274
(dp275
g10
I48
sg11
F0.5456905349874548
sg12
F138591698.5813
sg13
Nsba(iGraphics.simplified_new
Scores
p276
(dp277
g10
I56
sg11
F0.5123767531432208
sg12
F133077774.1925
sg13
Nsbasg52
S'SWAY5'
p278
sbsS'SWAY5_512'
p279
(iGraphics.simplified_new
SolutionHolder
p280
(dp281
g4
g5
sg6
(lp282
(iGraphics.simplified_new
Scores
p283
(dp284
g10
I16
sg11
F0.5020821828442106
sg12
F127216208.8321
sg13
Nsba(iGraphics.simplified_new
Scores
p285
(dp286
g10
I16
sg11
F0.429761102691398
sg12
F118601586.7478
sg13
Nsba(iGraphics.simplified_new
Scores
p287
(dp288
g10
I16
sg11
F0.3659654329708734
sg12
F128996360.8876
sg13
Nsba(iGraphics.simplified_new
Scores
p289
(dp290
g10
I16
sg11
F0.5562522873096993
sg12
F130558990.639
sg13
Nsba(iGraphics.simplified_new
Scores
p291
(dp292
g10
I13
sg11
F0.524518206135397
sg12
F122509159.2707
sg13
Nsba(iGraphics.simplified_new
Scores
p293
(dp294
g10
I16
sg11
F0.48860484866876547
sg12
F116807291.4629
sg13
Nsba(iGraphics.simplified_new
Scores
p295
(dp296
g10
I14
sg11
F0.5438378198612516
sg12
F126377127.1001
sg13
Nsba(iGraphics.simplified_new
Scores
p297
(dp298
g10
I20
sg11
F0.4308453668925802
sg12
F125888355.8916
sg13
Nsba(iGraphics.simplified_new
Scores
p299
(dp300
g10
I12
sg11
F0.5443611317226464
sg12
F131987172.9008
sg13
Nsba(iGraphics.simplified_new
Scores
p301
(dp302
g10
I12
sg11
F0.4910551783659589
sg12
F115807447.2896
sg13
Nsba(iGraphics.simplified_new
Scores
p303
(dp304
g10
I16
sg11
F0.5575757899125698
sg12
F130933179.6723
sg13
Nsba(iGraphics.simplified_new
Scores
p305
(dp306
g10
I16
sg11
F0.6697206766661031
sg12
F128209816.8181
sg13
Nsba(iGraphics.simplified_new
Scores
p307
(dp308
g10
I15
sg11
F0.6678576081738177
sg12
F125443002.9265
sg13
Nsba(iGraphics.simplified_new
Scores
p309
(dp310
g10
I14
sg11
F0.5207683691454486
sg12
F127611092.0115
sg13
Nsba(iGraphics.simplified_new
Scores
p311
(dp312
g10
I12
sg11
F0.5584254872244215
sg12
F119926047.2005
sg13
Nsba(iGraphics.simplified_new
Scores
p313
(dp314
g10
I16
sg11
F0.49288005048651484
sg12
F125634094.3713
sg13
Nsba(iGraphics.simplified_new
Scores
p315
(dp316
g10
I15
sg11
F0.6581513450660937
sg12
F120949348.9096
sg13
Nsba(iGraphics.simplified_new
Scores
p317
(dp318
g10
I15
sg11
F0.5716870496732342
sg12
F123343919.5489
sg13
Nsba(iGraphics.simplified_new
Scores
p319
(dp320
g10
I16
sg11
F0.5281564278100607
sg12
F126787761.0151
sg13
Nsba(iGraphics.simplified_new
Scores
p321
(dp322
g10
I16
sg11
F0.5392952470156704
sg12
F117739115.6533
sg13
Nsbasg52
S'SWAY5'
p323
sbsS'SWAY5_100'
p324
(iGraphics.simplified_new
SolutionHolder
p325
(dp326
g4
g5
sg6
(lp327
(iGraphics.simplified_new
Scores
p328
(dp329
g10
I6
sg11
F0.6656865964012979
sg12
F92091743.8087
sg13
Nsba(iGraphics.simplified_new
Scores
p330
(dp331
g10
I6
sg11
F0.7256583532475913
sg12
F85524172.275
sg13
Nsba(iGraphics.simplified_new
Scores
p332
(dp333
g10
I9
sg11
F0.6534377451911993
sg12
F140469222.8155
sg13
Nsba(iGraphics.simplified_new
Scores
p334
(dp335
g10
I6
sg11
F0.7239094797537245
sg12
F100253517.2626
sg13
Nsba(iGraphics.simplified_new
Scores
p336
(dp337
g10
I5
sg11
F0.7427005539512438
sg12
F90700363.3075
sg13
Nsba(iGraphics.simplified_new
Scores
p338
(dp339
g10
I6
sg11
F0.622121306818128
sg12
F137485963.756
sg13
Nsba(iGraphics.simplified_new
Scores
p340
(dp341
g10
I7
sg11
F0.5155514137740019
sg12
F117676773.6657
sg13
Nsba(iGraphics.simplified_new
Scores
p342
(dp343
g10
I9
sg11
F0.6864844317847486
sg12
F116124289.7305
sg13
Nsba(iGraphics.simplified_new
Scores
p344
(dp345
g10
I6
sg11
F0.5998938093242526
sg12
F105951064.98
sg13
Nsba(iGraphics.simplified_new
Scores
p346
(dp347
g10
I6
sg11
F0.620967477401653
sg12
F121570504.678
sg13
Nsba(iGraphics.simplified_new
Scores
p348
(dp349
g10
I6
sg11
F0.48100938912714863
sg12
F107518199.7725
sg13
Nsba(iGraphics.simplified_new
Scores
p350
(dp351
g10
I6
sg11
F0.8294682151111538
sg12
F112092765.5566
sg13
Nsba(iGraphics.simplified_new
Scores
p352
(dp353
g10
I6
sg11
F0.5600434597708687
sg12
F122855976.4899
sg13
Nsba(iGraphics.simplified_new
Scores
p354
(dp355
g10
I6
sg11
F0.5783057221785567
sg12
F119531910.3825
sg13
Nsba(iGraphics.simplified_new
Scores
p356
(dp357
g10
I5
sg11
F0.7843134713465709
sg12
F123897478.4005
sg13
Nsba(iGraphics.simplified_new
Scores
p358
(dp359
g10
I7
sg11
F0.7033149845176906
sg12
F112126627.8315
sg13
Nsba(iGraphics.simplified_new
Scores
p360
(dp361
g10
I9
sg11
F0.47143735483473637
sg12
F117737968.2216
sg13
Nsba(iGraphics.simplified_new
Scores
p362
(dp363
g10
I9
sg11
F0.5809677641241652
sg12
F113630719.2714
sg13
Nsba(iGraphics.simplified_new
Scores
p364
(dp365
g10
I6
sg11
F0.7935132034818452
sg12
F114243176.0435
sg13
Nsba(iGraphics.simplified_new
Scores
p366
(dp367
g10
I7
sg11
F0.6449156526441383
sg12
F110854577.5223
sg13
Nsbasg52
S'SWAY5'
p368
sbsS'NSGAII_100'
p369
(iGraphics.simplified_new
SolutionHolder
p370
(dp371
g4
g5
sg6
(lp372
(iGraphics.simplified_new
Scores
p373
(dp374
g10
I100
sg11
F0.766401282316041
sg12
F144239518.1923
sg13
Nsba(iGraphics.simplified_new
Scores
p375
(dp376
g10
I100
sg11
F0.677149509496484
sg12
F144884351.854
sg13
Nsba(iGraphics.simplified_new
Scores
p377
(dp378
g10
I100
sg11
F0.7283174501827344
sg12
F141028493.0042
sg13
Nsba(iGraphics.simplified_new
Scores
p379
(dp380
g10
I100
sg11
F0.7499620227395369
sg12
F144677130.3446
sg13
Nsba(iGraphics.simplified_new
Scores
p381
(dp382
g10
I100
sg11
F0.7546072747409206
sg12
F142886572.9761
sg13
Nsba(iGraphics.simplified_new
Scores
p383
(dp384
g10
I100
sg11
F0.7290302407387935
sg12
F143552347.4511
sg13
Nsba(iGraphics.simplified_new
Scores
p385
(dp386
g10
I100
sg11
F0.7255360517704865
sg12
F141874441.8258
sg13
Nsba(iGraphics.simplified_new
Scores
p387
(dp388
g10
I100
sg11
F0.795429743217053
sg12
F145873395.3844
sg13
Nsba(iGraphics.simplified_new
Scores
p389
(dp390
g10
I100
sg11
F0.8019652771951882
sg12
F143220005.1275
sg13
Nsba(iGraphics.simplified_new
Scores
p391
(dp392
g10
I100
sg11
F0.7904183896681963
sg12
F141517253.694
sg13
Nsba(iGraphics.simplified_new
Scores
p393
(dp394
g10
I100
sg11
F0.7630005736395443
sg12
F143724388.063
sg13
Nsba(iGraphics.simplified_new
Scores
p395
(dp396
g10
I100
sg11
F0.7154492077148129
sg12
F143025976.3577
sg13
Nsba(iGraphics.simplified_new
Scores
p397
(dp398
g10
I100
sg11
F0.6535418526414657
sg12
F144902083.5699
sg13
Nsba(iGraphics.simplified_new
Scores
p399
(dp400
g10
I100
sg11
F0.691557186982199
sg12
F143230978.3138
sg13
Nsba(iGraphics.simplified_new
Scores
p401
(dp402
g10
I100
sg11
F0.5801762007703233
sg12
F141182561.0554
sg13
Nsba(iGraphics.simplified_new
Scores
p403
(dp404
g10
I100
sg11
F0.6755704902488445
sg12
F144105729.9609
sg13
Nsba(iGraphics.simplified_new
Scores
p405
(dp406
g10
I100
sg11
F0.7541089685494341
sg12
F142818090.8171
sg13
Nsba(iGraphics.simplified_new
Scores
p407
(dp408
g10
I100
sg11
F0.7923208395094021
sg12
F142059698.0302
sg13
Nsba(iGraphics.simplified_new
Scores
p409
(dp410
g10
I100
sg11
F0.6527357246370936
sg12
F143913851.8456
sg13
Nsba(iGraphics.simplified_new
Scores
p411
(dp412
g10
I100
sg11
F0.8024690530768568
sg12
F145087759.5257
sg13
Nsbasg52
S'NSGAII'
p413
sbs.