(dp0
S'SPEA2_100'
p1
(iGraphics.simplified_new
SolutionHolder
p2
(dp3
S'problem'
p4
S'xomo_osp'
p5
sS'repeats'
p6
(lp7
(iGraphics.simplified_new
Scores
p8
(dp9
S'pfs'
p10
I100
sS'spread'
p11
F0.6765808165170923
sS'hv'
p12
F140345298.1755
sS'igd'
p13
Nsba(iGraphics.simplified_new
Scores
p14
(dp15
g10
I100
sg11
F0.7476435886269822
sg12
F140658568.6966
sg13
Nsba(iGraphics.simplified_new
Scores
p16
(dp17
g10
I100
sg11
F0.7811061322591206
sg12
F141031890.8563
sg13
Nsba(iGraphics.simplified_new
Scores
p18
(dp19
g10
I100
sg11
F0.7436477005432826
sg12
F144199021.0355
sg13
Nsba(iGraphics.simplified_new
Scores
p20
(dp21
g10
I100
sg11
F0.762031066249942
sg12
F141199941.7114
sg13
Nsba(iGraphics.simplified_new
Scores
p22
(dp23
g10
I100
sg11
F0.7740558139749938
sg12
F142684887.8519
sg13
Nsba(iGraphics.simplified_new
Scores
p24
(dp25
g10
I100
sg11
F0.7457575504420882
sg12
F141880601.6462
sg13
Nsba(iGraphics.simplified_new
Scores
p26
(dp27
g10
I100
sg11
F0.7109340117643721
sg12
F142938167.8226
sg13
Nsba(iGraphics.simplified_new
Scores
p28
(dp29
g10
I100
sg11
F0.6597590362287218
sg12
F142478477.4454
sg13
Nsba(iGraphics.simplified_new
Scores
p30
(dp31
g10
I100
sg11
F0.6960401592024588
sg12
F144211931.9719
sg13
Nsba(iGraphics.simplified_new
Scores
p32
(dp33
g10
I100
sg11
F0.781880330386791
sg12
F141701727.0038
sg13
Nsba(iGraphics.simplified_new
Scores
p34
(dp35
g10
I100
sg11
F0.6804407655436996
sg12
F142345706.0968
sg13
Nsba(iGraphics.simplified_new
Scores
p36
(dp37
g10
I100
sg11
F0.6484342741369942
sg12
F140898635.2364
sg13
Nsba(iGraphics.simplified_new
Scores
p38
(dp39
g10
I100
sg11
F0.7111906658963064
sg12
F143677929.1219
sg13
Nsba(iGraphics.simplified_new
Scores
p40
(dp41
g10
I100
sg11
F0.6820266832411789
sg12
F141929636.9092
sg13
Nsba(iGraphics.simplified_new
Scores
p42
(dp43
g10
I100
sg11
F0.697901145771233
sg12
F142611812.1464
sg13
Nsba(iGraphics.simplified_new
Scores
p44
(dp45
g10
I100
sg11
F0.7715923216547828
sg12
F143371347.8621
sg13
Nsba(iGraphics.simplified_new
Scores
p46
(dp47
g10
I100
sg11
F0.695710940798224
sg12
F141798164.0306
sg13
Nsba(iGraphics.simplified_new
Scores
p48
(dp49
g10
I100
sg11
F0.7357914993874488
sg12
F141366662.7636
sg13
Nsba(iGraphics.simplified_new
Scores
p50
(dp51
g10
I100
sg11
F0.7369133552094362
sg12
F141241292.1794
sg13
NsbasS'algorithm'
p52
S'SPEA2'
p53
sbsS'SWAY5_8192'
p54
(iGraphics.simplified_new
SolutionHolder
p55
(dp56
g4
g5
sg6
(lp57
(iGraphics.simplified_new
Scores
p58
(dp59
g10
I90
sg11
F0.4740288903564988
sg12
F135309807.6812
sg13
Nsba(iGraphics.simplified_new
Scores
p60
(dp61
g10
I48
sg11
F0.4336009105613946
sg12
F133995528.752
sg13
Nsba(iGraphics.simplified_new
Scores
p62
(dp63
g10
I64
sg11
F0.4338356525239624
sg12
F131514019.5053
sg13
Nsba(iGraphics.simplified_new
Scores
p64
(dp65
g10
I56
sg11
F0.49924825806433776
sg12
F130571446.4848
sg13
Nsba(iGraphics.simplified_new
Scores
p66
(dp67
g10
I90
sg11
F0.46913269857361783
sg12
F133376242.1583
sg13
Nsba(iGraphics.simplified_new
Scores
p68
(dp69
g10
I64
sg11
F0.4771740555617115
sg12
F140261702.4489
sg13
Nsba(iGraphics.simplified_new
Scores
p70
(dp71
g10
I48
sg11
F0.44468487858662903
sg12
F139377656.7307
sg13
Nsba(iGraphics.simplified_new
Scores
p72
(dp73
g10
I48
sg11
F0.5212914129026751
sg12
F128719175.1975
sg13
Nsba(iGraphics.simplified_new
Scores
p74
(dp75
g10
I62
sg11
F0.37647290196684724
sg12
F128275910.9076
sg13
Nsba(iGraphics.simplified_new
Scores
p76
(dp77
g10
I24
sg11
F0.4148795445451017
sg12
F122037899.9717
sg13
Nsba(iGraphics.simplified_new
Scores
p78
(dp79
g10
I48
sg11
F0.4326460863688196
sg12
F127152936.6941
sg13
Nsba(iGraphics.simplified_new
Scores
p80
(dp81
g10
I56
sg11
F0.4939872411085952
sg12
F126988521.798
sg13
Nsba(iGraphics.simplified_new
Scores
p82
(dp83
g10
I54
sg11
F0.49708710485036645
sg12
F136066030.3805
sg13
Nsba(iGraphics.simplified_new
Scores
p84
(dp85
g10
I72
sg11
F0.4752624293540727
sg12
F140204534.0983
sg13
Nsba(iGraphics.simplified_new
Scores
p86
(dp87
g10
I64
sg11
F0.35157135081763474
sg12
F138798801.1813
sg13
Nsba(iGraphics.simplified_new
Scores
p88
(dp89
g10
I63
sg11
F0.4448700788568025
sg12
F133847456.6429
sg13
Nsba(iGraphics.simplified_new
Scores
p90
(dp91
g10
I72
sg11
F0.4557236875518615
sg12
F131001206.3753
sg13
Nsba(iGraphics.simplified_new
Scores
p92
(dp93
g10
I60
sg11
F0.39420382503534385
sg12
F133188837.5394
sg13
Nsba(iGraphics.simplified_new
Scores
p94
(dp95
g10
I63
sg11
F0.448898389506999
sg12
F122136708.2499
sg13
Nsba(iGraphics.simplified_new
Scores
p96
(dp97
g10
I55
sg11
F0.47658672483218306
sg12
F127318081.2089
sg13
Nsbasg52
S'SWAY5'
p98
sbsS'SWAY5_1024'
p99
(iGraphics.simplified_new
SolutionHolder
p100
(dp101
g4
g5
sg6
(lp102
(iGraphics.simplified_new
Scores
p103
(dp104
g10
I31
sg11
F0.4773390538834474
sg12
F129267448.8952
sg13
Nsba(iGraphics.simplified_new
Scores
p105
(dp106
g10
I18
sg11
F0.5706190559136263
sg12
F125931105.1958
sg13
Nsba(iGraphics.simplified_new
Scores
p107
(dp108
g10
I21
sg11
F0.5276375961629876
sg12
F126211880.3226
sg13
Nsba(iGraphics.simplified_new
Scores
p109
(dp110
g10
I24
sg11
F0.5576090170661133
sg12
F121728315.0324
sg13
Nsba(iGraphics.simplified_new
Scores
p111
(dp112
g10
I16
sg11
F0.49329959405656987
sg12
F130184870.7125
sg13
Nsba(iGraphics.simplified_new
Scores
p113
(dp114
g10
I16
sg11
F0.5305976912707426
sg12
F113197167.027
sg13
Nsba(iGraphics.simplified_new
Scores
p115
(dp116
g10
I16
sg11
F0.5929282397223817
sg12
F129737368.7827
sg13
Nsba(iGraphics.simplified_new
Scores
p117
(dp118
g10
I31
sg11
F0.5308262874536938
sg12
F131958134.2886
sg13
Nsba(iGraphics.simplified_new
Scores
p119
(dp120
g10
I24
sg11
F0.45165451279305924
sg12
F123502788.2431
sg13
Nsba(iGraphics.simplified_new
Scores
p121
(dp122
g10
I19
sg11
F0.49155351544122844
sg12
F128313865.9285
sg13
Nsba(iGraphics.simplified_new
Scores
p123
(dp124
g10
I16
sg11
F0.4802363436426
sg12
F111839175.8259
sg13
Nsba(iGraphics.simplified_new
Scores
p125
(dp126
g10
I31
sg11
F0.48502253519783983
sg12
F127673848.7501
sg13
Nsba(iGraphics.simplified_new
Scores
p127
(dp128
g10
I24
sg11
F0.520044722518601
sg12
F129350001.1401
sg13
Nsba(iGraphics.simplified_new
Scores
p129
(dp130
g10
I24
sg11
F0.6693651772769807
sg12
F125397077.7454
sg13
Nsba(iGraphics.simplified_new
Scores
p131
(dp132
g10
I31
sg11
F0.5556369960277779
sg12
F118365912.7937
sg13
Nsba(iGraphics.simplified_new
Scores
p133
(dp134
g10
I24
sg11
F0.5435769830016098
sg12
F130623629.9554
sg13
Nsba(iGraphics.simplified_new
Scores
p135
(dp136
g10
I27
sg11
F0.5405673072981404
sg12
F138564698.4508
sg13
Nsba(iGraphics.simplified_new
Scores
p137
(dp138
g10
I16
sg11
F0.5289171518370945
sg12
F118728966.7557
sg13
Nsba(iGraphics.simplified_new
Scores
p139
(dp140
g10
I16
sg11
F0.519060881103716
sg12
F123941247.4127
sg13
Nsba(iGraphics.simplified_new
Scores
p141
(dp142
g10
I24
sg11
F0.463182718029684
sg12
F122087029.2032
sg13
Nsbasg52
S'SWAY5'
p143
sbsS'SWAY5_2048'
p144
(iGraphics.simplified_new
SolutionHolder
p145
(dp146
g4
g5
sg6
(lp147
(iGraphics.simplified_new
Scores
p148
(dp149
g10
I24
sg11
F0.5262943115353411
sg12
F133247861.925
sg13
Nsba(iGraphics.simplified_new
Scores
p150
(dp151
g10
I36
sg11
F0.5844042430564664
sg12
F132176691.734
sg13
Nsba(iGraphics.simplified_new
Scores
p152
(dp153
g10
I42
sg11
F0.45377753072980614
sg12
F132138668.0037
sg13
Nsba(iGraphics.simplified_new
Scores
p154
(dp155
g10
I30
sg11
F0.5383330360881149
sg12
F134190662.3752
sg13
Nsba(iGraphics.simplified_new
Scores
p156
(dp157
g10
I32
sg11
F0.49598246347388614
sg12
F134505063.8328
sg13
Nsba(iGraphics.simplified_new
Scores
p158
(dp159
g10
I42
sg11
F0.47914209746518394
sg12
F123636221.1914
sg13
Nsba(iGraphics.simplified_new
Scores
p160
(dp161
g10
I36
sg11
F0.4133862355741797
sg12
F132891564.099
sg13
Nsba(iGraphics.simplified_new
Scores
p162
(dp163
g10
I24
sg11
F0.5377176402941956
sg12
F121638589.9199
sg13
Nsba(iGraphics.simplified_new
Scores
p164
(dp165
g10
I24
sg11
F0.463968788502912
sg12
F130206856.9243
sg13
Nsba(iGraphics.simplified_new
Scores
p166
(dp167
g10
I16
sg11
F0.46312665525011815
sg12
F120098033.4305
sg13
Nsba(iGraphics.simplified_new
Scores
p168
(dp169
g10
I24
sg11
F0.45590223475254754
sg12
F125045515.1862
sg13
Nsba(iGraphics.simplified_new
Scores
p170
(dp171
g10
I36
sg11
F0.5362529009213616
sg12
F129423740.977
sg13
Nsba(iGraphics.simplified_new
Scores
p172
(dp173
g10
I30
sg11
F0.476771825145929
sg12
F133405184.0721
sg13
Nsba(iGraphics.simplified_new
Scores
p174
(dp175
g10
I32
sg11
F0.45881878109611923
sg12
F123108894.6032
sg13
Nsba(iGraphics.simplified_new
Scores
p176
(dp177
g10
I32
sg11
F0.47806801649365455
sg12
F128124187.4131
sg13
Nsba(iGraphics.simplified_new
Scores
p178
(dp179
g10
I24
sg11
F0.5293617148039802
sg12
F134970073.8164
sg13
Nsba(iGraphics.simplified_new
Scores
p180
(dp181
g10
I36
sg11
F0.44455463505839055
sg12
F132177522.7534
sg13
Nsba(iGraphics.simplified_new
Scores
p182
(dp183
g10
I32
sg11
F0.4592560029857427
sg12
F133815385.3716
sg13
Nsba(iGraphics.simplified_new
Scores
p184
(dp185
g10
I24
sg11
F0.46975202303459274
sg12
F113569544.6585
sg13
Nsba(iGraphics.simplified_new
Scores
p186
(dp187
g10
I32
sg11
F0.5107036078005527
sg12
F120738474.2771
sg13
Nsbasg52
S'SWAY5'
p188
sbsS'SWAY5_10000'
p189
(iGraphics.simplified_new
SolutionHolder
p190
(dp191
g4
g5
sg6
(lp192
(iGraphics.simplified_new
Scores
p193
(dp194
g10
I68
sg11
F0.4326047792686232
sg12
F134178597.9548
sg13
Nsba(iGraphics.simplified_new
Scores
p195
(dp196
g10
I58
sg11
F0.4732258183591462
sg12
F139399094.9747
sg13
Nsba(iGraphics.simplified_new
Scores
p197
(dp198
g10
I78
sg11
F0.4651670580539455
sg12
F128007705.5278
sg13
Nsba(iGraphics.simplified_new
Scores
p199
(dp200
g10
I59
sg11
F0.5312702266392871
sg12
F130132060.0043
sg13
Nsba(iGraphics.simplified_new
Scores
p201
(dp202
g10
I82
sg11
F0.43705084298612584
sg12
F139092800.3409
sg13
Nsba(iGraphics.simplified_new
Scores
p203
(dp204
g10
I68
sg11
F0.4940643255717574
sg12
F140114199.9297
sg13
Nsba(iGraphics.simplified_new
Scores
p205
(dp206
g10
I39
sg11
F0.5302658945311338
sg12
F134912822.4449
sg13
Nsba(iGraphics.simplified_new
Scores
p207
(dp208
g10
I30
sg11
F0.6041202691062028
sg12
F118877559.1571
sg13
Nsba(iGraphics.simplified_new
Scores
p209
(dp210
g10
I88
sg11
F0.44220089296865245
sg12
F127988799.4243
sg13
Nsba(iGraphics.simplified_new
Scores
p211
(dp212
g10
I73
sg11
F0.4538171487223306
sg12
F128920312.552
sg13
Nsba(iGraphics.simplified_new
Scores
p213
(dp214
g10
I96
sg11
F0.48222945848767307
sg12
F135767140.6152
sg13
Nsba(iGraphics.simplified_new
Scores
p215
(dp216
g10
I51
sg11
F0.5408001466341869
sg12
F128534142.1594
sg13
Nsba(iGraphics.simplified_new
Scores
p217
(dp218
g10
I57
sg11
F0.47592830716260615
sg12
F130501979.0235
sg13
Nsba(iGraphics.simplified_new
Scores
p219
(dp220
g10
I93
sg11
F0.4579023835736992
sg12
F133411702.6206
sg13
Nsba(iGraphics.simplified_new
Scores
p221
(dp222
g10
I58
sg11
F0.4949888324121556
sg12
F129656277.1186
sg13
Nsba(iGraphics.simplified_new
Scores
p223
(dp224
g10
I78
sg11
F0.4525472387463522
sg12
F132423821.0571
sg13
Nsba(iGraphics.simplified_new
Scores
p225
(dp226
g10
I48
sg11
F0.4035620314023494
sg12
F138827591.8737
sg13
Nsba(iGraphics.simplified_new
Scores
p227
(dp228
g10
I96
sg11
F0.46035355691415386
sg12
F135524574.6382
sg13
Nsba(iGraphics.simplified_new
Scores
p229
(dp230
g10
I78
sg11
F0.435451462798095
sg12
F136071307.5229
sg13
Nsba(iGraphics.simplified_new
Scores
p231
(dp232
g10
I90
sg11
F0.4838911572424382
sg12
F137450737.839
sg13
Nsbasg52
S'SWAY5'
p233
sbsS'SWAY5_4096'
p234
(iGraphics.simplified_new
SolutionHolder
p235
(dp236
g4
g5
sg6
(lp237
(iGraphics.simplified_new
Scores
p238
(dp239
g10
I63
sg11
F0.4700206392166466
sg12
F130965010.9745
sg13
Nsba(iGraphics.simplified_new
Scores
p240
(dp241
g10
I42
sg11
F0.4384100275974152
sg12
F125890378.1818
sg13
Nsba(iGraphics.simplified_new
Scores
p242
(dp243
g10
I55
sg11
F0.46015199359849684
sg12
F137946788.4282
sg13
Nsba(iGraphics.simplified_new
Scores
p244
(dp245
g10
I36
sg11
F0.434052955421836
sg12
F127382150.5336
sg13
Nsba(iGraphics.simplified_new
Scores
p246
(dp247
g10
I32
sg11
F0.5491596059155089
sg12
F124913249.5437
sg13
Nsba(iGraphics.simplified_new
Scores
p248
(dp249
g10
I36
sg11
F0.5174800091668621
sg12
F129594941.0199
sg13
Nsba(iGraphics.simplified_new
Scores
p250
(dp251
g10
I45
sg11
F0.4498639150073297
sg12
F124159870.952
sg13
Nsba(iGraphics.simplified_new
Scores
p252
(dp253
g10
I48
sg11
F0.45045637759670826
sg12
F132308557.9106
sg13
Nsba(iGraphics.simplified_new
Scores
p254
(dp255
g10
I16
sg11
F0.6126409500741573
sg12
F129013374.9034
sg13
Nsba(iGraphics.simplified_new
Scores
p256
(dp257
g10
I48
sg11
F0.44212222501186366
sg12
F131195242.6061
sg13
Nsba(iGraphics.simplified_new
Scores
p258
(dp259
g10
I48
sg11
F0.4688128101719146
sg12
F125432717.3875
sg13
Nsba(iGraphics.simplified_new
Scores
p260
(dp261
g10
I60
sg11
F0.41731005448108505
sg12
F127758443.5579
sg13
Nsba(iGraphics.simplified_new
Scores
p262
(dp263
g10
I28
sg11
F0.4200786654282154
sg12
F131917436.2102
sg13
Nsba(iGraphics.simplified_new
Scores
p264
(dp265
g10
I32
sg11
F0.4681783772767087
sg12
F121791611.237
sg13
Nsba(iGraphics.simplified_new
Scores
p266
(dp267
g10
I63
sg11
F0.5087000351251207
sg12
F129376415.4479
sg13
Nsba(iGraphics.simplified_new
Scores
p268
(dp269
g10
I52
sg11
F0.5277812328022353
sg12
F134781290.6509
sg13
Nsba(iGraphics.simplified_new
Scores
p270
(dp271
g10
I48
sg11
F0.4000319755418247
sg12
F137574928.3886
sg13
Nsba(iGraphics.simplified_new
Scores
p272
(dp273
g10
I48
sg11
F0.4390991910845356
sg12
F129032979.5576
sg13
Nsba(iGraphics.simplified_new
Scores
p274
(dp275
g10
I37
sg11
F0.46823122636839687
sg12
F129367588.2741
sg13
Nsba(iGraphics.simplified_new
Scores
p276
(dp277
g10
I36
sg11
F0.49990681713241925
sg12
F124753547.7008
sg13
Nsbasg52
S'SWAY5'
p278
sbsS'SWAY5_512'
p279
(iGraphics.simplified_new
SolutionHolder
p280
(dp281
g4
g5
sg6
(lp282
(iGraphics.simplified_new
Scores
p283
(dp284
g10
I16
sg11
F0.5573904232150074
sg12
F131586786.6984
sg13
Nsba(iGraphics.simplified_new
Scores
p285
(dp286
g10
I16
sg11
F0.5340760743036624
sg12
F136633009.3097
sg13
Nsba(iGraphics.simplified_new
Scores
p287
(dp288
g10
I12
sg11
F0.6862368449676082
sg12
F123352688.2418
sg13
Nsba(iGraphics.simplified_new
Scores
p289
(dp290
g10
I16
sg11
F0.5197671438722422
sg12
F120758474.4815
sg13
Nsba(iGraphics.simplified_new
Scores
p291
(dp292
g10
I12
sg11
F0.7164684691304009
sg12
F106884927.019
sg13
Nsba(iGraphics.simplified_new
Scores
p293
(dp294
g10
I16
sg11
F0.6360404271441037
sg12
F120630372.163
sg13
Nsba(iGraphics.simplified_new
Scores
p295
(dp296
g10
I16
sg11
F0.5221893024062635
sg12
F112013586.475
sg13
Nsba(iGraphics.simplified_new
Scores
p297
(dp298
g10
I12
sg11
F0.6143186402779492
sg12
F119940084.3725
sg13
Nsba(iGraphics.simplified_new
Scores
p299
(dp300
g10
I12
sg11
F0.5855721944344102
sg12
F117964722.7735
sg13
Nsba(iGraphics.simplified_new
Scores
p301
(dp302
g10
I15
sg11
F0.6539209920867294
sg12
F118151371.2538
sg13
Nsba(iGraphics.simplified_new
Scores
p303
(dp304
g10
I18
sg11
F0.5353673566989116
sg12
F130989802.7337
sg13
Nsba(iGraphics.simplified_new
Scores
p305
(dp306
g10
I14
sg11
F0.5363551350243351
sg12
F122986303.0056
sg13
Nsba(iGraphics.simplified_new
Scores
p307
(dp308
g10
I21
sg11
F0.4560933108197931
sg12
F119943846.4376
sg13
Nsba(iGraphics.simplified_new
Scores
p309
(dp310
g10
I19
sg11
F0.4842885750299019
sg12
F125345587.5665
sg13
Nsba(iGraphics.simplified_new
Scores
p311
(dp312
g10
I18
sg11
F0.5487591495447985
sg12
F117152433.9332
sg13
Nsba(iGraphics.simplified_new
Scores
p313
(dp314
g10
I16
sg11
F0.5126497848607635
sg12
F129541642.2935
sg13
Nsba(iGraphics.simplified_new
Scores
p315
(dp316
g10
I12
sg11
F0.6424567495111525
sg12
F128464096.4678
sg13
Nsba(iGraphics.simplified_new
Scores
p317
(dp318
g10
I16
sg11
F0.49480539847344907
sg12
F128225613.4679
sg13
Nsba(iGraphics.simplified_new
Scores
p319
(dp320
g10
I16
sg11
F0.5785400917971529
sg12
F108378755.8155
sg13
Nsba(iGraphics.simplified_new
Scores
p321
(dp322
g10
I12
sg11
F0.6168804663937011
sg12
F105985187.5759
sg13
Nsbasg52
S'SWAY5'
p323
sbsS'SWAY5_100'
p324
(iGraphics.simplified_new
SolutionHolder
p325
(dp326
g4
g5
sg6
(lp327
(iGraphics.simplified_new
Scores
p328
(dp329
g10
I6
sg11
F0.7923058370071099
sg12
F115733046.9667
sg13
Nsba(iGraphics.simplified_new
Scores
p330
(dp331
g10
I7
sg11
F0.558331857055158
sg12
F112124156.4969
sg13
Nsba(iGraphics.simplified_new
Scores
p332
(dp333
g10
I6
sg11
F0.446989223281824
sg12
F113649016.4545
sg13
Nsba(iGraphics.simplified_new
Scores
p334
(dp335
g10
I6
sg11
F0.4301668669470805
sg12
F104270186.8985
sg13
Nsba(iGraphics.simplified_new
Scores
p336
(dp337
g10
I6
sg11
F0.7720855014261567
sg12
F109873039.4611
sg13
Nsba(iGraphics.simplified_new
Scores
p338
(dp339
g10
I6
sg11
F0.6837161935648964
sg12
F122974199.9632
sg13
Nsba(iGraphics.simplified_new
Scores
p340
(dp341
g10
I6
sg11
F0.7465817573897114
sg12
F131149037.6398
sg13
Nsba(iGraphics.simplified_new
Scores
p342
(dp343
g10
I7
sg11
F0.7917415372015228
sg12
F119288252.0151
sg13
Nsba(iGraphics.simplified_new
Scores
p344
(dp345
g10
I6
sg11
F0.7564970628450868
sg12
F95019293.5945
sg13
Nsba(iGraphics.simplified_new
Scores
p346
(dp347
g10
I6
sg11
F0.6045109303454146
sg12
F109198023.5255
sg13
Nsba(iGraphics.simplified_new
Scores
p348
(dp349
g10
I6
sg11
F0.6180780365064731
sg12
F126417106.3746
sg13
Nsba(iGraphics.simplified_new
Scores
p350
(dp351
g10
I6
sg11
F0.6511852278772076
sg12
F99108792.8503
sg13
Nsba(iGraphics.simplified_new
Scores
p352
(dp353
g10
I7
sg11
F0.7424896039958299
sg12
F111128030.5634
sg13
Nsba(iGraphics.simplified_new
Scores
p354
(dp355
g10
I6
sg11
F0.44352716199660713
sg12
F95597164.3826
sg13
Nsba(iGraphics.simplified_new
Scores
p356
(dp357
g10
I7
sg11
F0.8041218873930278
sg12
F109037412.604
sg13
Nsba(iGraphics.simplified_new
Scores
p358
(dp359
g10
I6
sg11
F0.6639133711797915
sg12
F93471202.941
sg13
Nsba(iGraphics.simplified_new
Scores
p360
(dp361
g10
I6
sg11
F0.6835275482935821
sg12
F118616779.2746
sg13
Nsba(iGraphics.simplified_new
Scores
p362
(dp363
g10
I7
sg11
F0.6098015296155228
sg12
F118827455.7136
sg13
Nsba(iGraphics.simplified_new
Scores
p364
(dp365
g10
I6
sg11
F0.6783102365259495
sg12
F116625075.2082
sg13
Nsba(iGraphics.simplified_new
Scores
p366
(dp367
g10
I6
sg11
F0.7579837225410746
sg12
F114146725.1556
sg13
Nsbasg52
S'SWAY5'
p368
sbsS'NSGAII_100'
p369
(iGraphics.simplified_new
SolutionHolder
p370
(dp371
g4
g5
sg6
(lp372
(iGraphics.simplified_new
Scores
p373
(dp374
g10
I100
sg11
F0.7460418461856418
sg12
F141936313.9798
sg13
Nsba(iGraphics.simplified_new
Scores
p375
(dp376
g10
I100
sg11
F0.7391278462532719
sg12
F142287717.4796
sg13
Nsba(iGraphics.simplified_new
Scores
p377
(dp378
g10
I100
sg11
F0.7795879628369798
sg12
F140103939.1234
sg13
Nsba(iGraphics.simplified_new
Scores
p379
(dp380
g10
I100
sg11
F0.7021136124220104
sg12
F141353496.548
sg13
Nsba(iGraphics.simplified_new
Scores
p381
(dp382
g10
I100
sg11
F0.73662883077218
sg12
F142308346.0937
sg13
Nsba(iGraphics.simplified_new
Scores
p383
(dp384
g10
I100
sg11
F0.7698808091966891
sg12
F143020335.284
sg13
Nsba(iGraphics.simplified_new
Scores
p385
(dp386
g10
I100
sg11
F0.687431297485104
sg12
F142944411.2755
sg13
Nsba(iGraphics.simplified_new
Scores
p387
(dp388
g10
I100
sg11
F0.6951198088234065
sg12
F141217577.2442
sg13
Nsba(iGraphics.simplified_new
Scores
p389
(dp390
g10
I100
sg11
F0.7618674034877876
sg12
F144805014.7292
sg13
Nsba(iGraphics.simplified_new
Scores
p391
(dp392
g10
I100
sg11
F0.678521941642455
sg12
F142089798.3818
sg13
Nsba(iGraphics.simplified_new
Scores
p393
(dp394
g10
I100
sg11
F0.6723677134063765
sg12
F140530828.391
sg13
Nsba(iGraphics.simplified_new
Scores
p395
(dp396
g10
I100
sg11
F0.7616009586874486
sg12
F143052072.7601
sg13
Nsba(iGraphics.simplified_new
Scores
p397
(dp398
g10
I100
sg11
F0.7672077930075087
sg12
F143743115.7836
sg13
Nsba(iGraphics.simplified_new
Scores
p399
(dp400
g10
I100
sg11
F0.6857229096590143
sg12
F139898189.7725
sg13
Nsba(iGraphics.simplified_new
Scores
p401
(dp402
g10
I100
sg11
F0.7464261351655261
sg12
F141499202.8028
sg13
Nsba(iGraphics.simplified_new
Scores
p403
(dp404
g10
I100
sg11
F0.7417086909411694
sg12
F145309979.0548
sg13
Nsba(iGraphics.simplified_new
Scores
p405
(dp406
g10
I100
sg11
F0.7231680529456572
sg12
F141444242.2542
sg13
Nsba(iGraphics.simplified_new
Scores
p407
(dp408
g10
I100
sg11
F0.7454402903458731
sg12
F142957068.3095
sg13
Nsba(iGraphics.simplified_new
Scores
p409
(dp410
g10
I100
sg11
F0.6408123056214438
sg12
F144709755.8144
sg13
Nsba(iGraphics.simplified_new
Scores
p411
(dp412
g10
I100
sg11
F0.686590809257265
sg12
F141816750.1282
sg13
Nsbasg52
S'NSGAII'
p413
sbs.