(dp0
S'SPEA2_100'
p1
(iGraphics.simplified_new
SolutionHolder
p2
(dp3
S'problem'
p4
S'xomo_all'
p5
sS'repeats'
p6
(lp7
(iGraphics.simplified_new
Scores
p8
(dp9
S'pfs'
p10
I100
sS'spread'
p11
F0.7385163985144757
sS'hv'
p12
F144448648.6822
sS'igd'
p13
Nsba(iGraphics.simplified_new
Scores
p14
(dp15
g10
I100
sg11
F0.6913528760800791
sg12
F143078854.5188
sg13
Nsba(iGraphics.simplified_new
Scores
p16
(dp17
g10
I100
sg11
F0.618824159886221
sg12
F143067989.6228
sg13
Nsba(iGraphics.simplified_new
Scores
p18
(dp19
g10
I100
sg11
F0.6807627880648887
sg12
F145700833.1864
sg13
Nsba(iGraphics.simplified_new
Scores
p20
(dp21
g10
I100
sg11
F0.7309272187016929
sg12
F142571663.601
sg13
Nsba(iGraphics.simplified_new
Scores
p22
(dp23
g10
I100
sg11
F0.7476726122930869
sg12
F143507697.0906
sg13
Nsba(iGraphics.simplified_new
Scores
p24
(dp25
g10
I100
sg11
F0.68073273720264
sg12
F143699323.615
sg13
Nsba(iGraphics.simplified_new
Scores
p26
(dp27
g10
I100
sg11
F0.6228672023192484
sg12
F141654074.5683
sg13
Nsba(iGraphics.simplified_new
Scores
p28
(dp29
g10
I100
sg11
F0.734528930648146
sg12
F143677665.3914
sg13
Nsba(iGraphics.simplified_new
Scores
p30
(dp31
g10
I100
sg11
F0.733413535469292
sg12
F144265769.8969
sg13
Nsba(iGraphics.simplified_new
Scores
p32
(dp33
g10
I100
sg11
F0.6830526968941661
sg12
F143762973.6139
sg13
Nsba(iGraphics.simplified_new
Scores
p34
(dp35
g10
I100
sg11
F0.7009810613735172
sg12
F143187816.7066
sg13
Nsba(iGraphics.simplified_new
Scores
p36
(dp37
g10
I100
sg11
F0.7130745684402966
sg12
F143830973.2669
sg13
Nsba(iGraphics.simplified_new
Scores
p38
(dp39
g10
I100
sg11
F0.7145744464343026
sg12
F145366983.243
sg13
Nsba(iGraphics.simplified_new
Scores
p40
(dp41
g10
I100
sg11
F0.7549908302688959
sg12
F144811467.8713
sg13
Nsba(iGraphics.simplified_new
Scores
p42
(dp43
g10
I100
sg11
F0.6307368434729619
sg12
F142753179.6788
sg13
Nsba(iGraphics.simplified_new
Scores
p44
(dp45
g10
I100
sg11
F0.7693563065261337
sg12
F144016836.408
sg13
Nsba(iGraphics.simplified_new
Scores
p46
(dp47
g10
I100
sg11
F0.6491668353098233
sg12
F144597414.0861
sg13
Nsba(iGraphics.simplified_new
Scores
p48
(dp49
g10
I100
sg11
F0.7423958174579726
sg12
F142753010.9671
sg13
Nsba(iGraphics.simplified_new
Scores
p50
(dp51
g10
I100
sg11
F0.7439056200997911
sg12
F143066740.8814
sg13
NsbasS'algorithm'
p52
S'SPEA2'
p53
sbsS'SWAY5_8192'
p54
(iGraphics.simplified_new
SolutionHolder
p55
(dp56
g4
g5
sg6
(lp57
(iGraphics.simplified_new
Scores
p58
(dp59
g10
I72
sg11
F0.40715998335503945
sg12
F130015830.9775
sg13
Nsba(iGraphics.simplified_new
Scores
p60
(dp61
g10
I36
sg11
F0.5020204179430184
sg12
F125976989.763
sg13
Nsba(iGraphics.simplified_new
Scores
p62
(dp63
g10
I84
sg11
F0.403260955153468
sg12
F135686557.8069
sg13
Nsba(iGraphics.simplified_new
Scores
p64
(dp65
g10
I31
sg11
F0.502850241298139
sg12
F139205620.1277
sg13
Nsba(iGraphics.simplified_new
Scores
p66
(dp67
g10
I54
sg11
F0.5165242572961616
sg12
F138750577.2516
sg13
Nsba(iGraphics.simplified_new
Scores
p68
(dp69
g10
I31
sg11
F0.6120412829461573
sg12
F134366139.4656
sg13
Nsba(iGraphics.simplified_new
Scores
p70
(dp71
g10
I36
sg11
F0.5197097384979434
sg12
F124197030.869
sg13
Nsba(iGraphics.simplified_new
Scores
p72
(dp73
g10
I48
sg11
F0.481410873412166
sg12
F134481804.3029
sg13
Nsba(iGraphics.simplified_new
Scores
p74
(dp75
g10
I63
sg11
F0.4810919827911646
sg12
F133768087.9169
sg13
Nsba(iGraphics.simplified_new
Scores
p76
(dp77
g10
I63
sg11
F0.46136253499165014
sg12
F127938066.9884
sg13
Nsba(iGraphics.simplified_new
Scores
p78
(dp79
g10
I86
sg11
F0.381601574877969
sg12
F137713907.7985
sg13
Nsba(iGraphics.simplified_new
Scores
p80
(dp81
g10
I62
sg11
F0.4515027936970824
sg12
F136036506.7174
sg13
Nsba(iGraphics.simplified_new
Scores
p82
(dp83
g10
I46
sg11
F0.4507809558316167
sg12
F130824095.2102
sg13
Nsba(iGraphics.simplified_new
Scores
p84
(dp85
g10
I71
sg11
F0.5758655257349093
sg12
F137179056.5455
sg13
Nsba(iGraphics.simplified_new
Scores
p86
(dp87
g10
I36
sg11
F0.5624721154436418
sg12
F120468919.5857
sg13
Nsba(iGraphics.simplified_new
Scores
p88
(dp89
g10
I45
sg11
F0.44731192592311164
sg12
F129478948.478
sg13
Nsba(iGraphics.simplified_new
Scores
p90
(dp91
g10
I48
sg11
F0.4472961216039901
sg12
F141142344.8064
sg13
Nsba(iGraphics.simplified_new
Scores
p92
(dp93
g10
I72
sg11
F0.47372385586918725
sg12
F135024870.8868
sg13
Nsba(iGraphics.simplified_new
Scores
p94
(dp95
g10
I64
sg11
F0.38098025717185613
sg12
F134831098.3762
sg13
Nsba(iGraphics.simplified_new
Scores
p96
(dp97
g10
I63
sg11
F0.425468351451046
sg12
F124930175.6331
sg13
Nsbasg52
S'SWAY5'
p98
sbsS'SWAY5_1024'
p99
(iGraphics.simplified_new
SolutionHolder
p100
(dp101
g4
g5
sg6
(lp102
(iGraphics.simplified_new
Scores
p103
(dp104
g10
I28
sg11
F0.631613143001712
sg12
F133306251.8662
sg13
Nsba(iGraphics.simplified_new
Scores
p105
(dp106
g10
I16
sg11
F0.4570699017409247
sg12
F128099545.8885
sg13
Nsba(iGraphics.simplified_new
Scores
p107
(dp108
g10
I21
sg11
F0.4886627906246832
sg12
F128660867.1322
sg13
Nsba(iGraphics.simplified_new
Scores
p109
(dp110
g10
I28
sg11
F0.5615117377820951
sg12
F133376127.2005
sg13
Nsba(iGraphics.simplified_new
Scores
p111
(dp112
g10
I18
sg11
F0.6622263194222813
sg12
F125552313.5812
sg13
Nsba(iGraphics.simplified_new
Scores
p113
(dp114
g10
I31
sg11
F0.535983164029453
sg12
F120114287.9254
sg13
Nsba(iGraphics.simplified_new
Scores
p115
(dp116
g10
I28
sg11
F0.4915800243143585
sg12
F129970031.157
sg13
Nsba(iGraphics.simplified_new
Scores
p117
(dp118
g10
I28
sg11
F0.4383808335264677
sg12
F132380495.3789
sg13
Nsba(iGraphics.simplified_new
Scores
p119
(dp120
g10
I31
sg11
F0.5001867079593604
sg12
F128991811.3069
sg13
Nsba(iGraphics.simplified_new
Scores
p121
(dp122
g10
I24
sg11
F0.6153750188468678
sg12
F136993494.701
sg13
Nsba(iGraphics.simplified_new
Scores
p123
(dp124
g10
I31
sg11
F0.582359852571061
sg12
F139186743.027
sg13
Nsba(iGraphics.simplified_new
Scores
p125
(dp126
g10
I16
sg11
F0.5114782719202363
sg12
F121021986.9631
sg13
Nsba(iGraphics.simplified_new
Scores
p127
(dp128
g10
I16
sg11
F0.5290083727703125
sg12
F122121648.3366
sg13
Nsba(iGraphics.simplified_new
Scores
p129
(dp130
g10
I24
sg11
F0.5001801273033089
sg12
F130340937.7402
sg13
Nsba(iGraphics.simplified_new
Scores
p131
(dp132
g10
I18
sg11
F0.58023341296298
sg12
F128390139.1928
sg13
Nsba(iGraphics.simplified_new
Scores
p133
(dp134
g10
I24
sg11
F0.4937348772029525
sg12
F131490310.1001
sg13
Nsba(iGraphics.simplified_new
Scores
p135
(dp136
g10
I31
sg11
F0.522826872738372
sg12
F139068650.318
sg13
Nsba(iGraphics.simplified_new
Scores
p137
(dp138
g10
I16
sg11
F0.6105816121725183
sg12
F116516057.5904
sg13
Nsba(iGraphics.simplified_new
Scores
p139
(dp140
g10
I27
sg11
F0.5494890420804636
sg12
F123445093.9071
sg13
Nsba(iGraphics.simplified_new
Scores
p141
(dp142
g10
I19
sg11
F0.5456769806398971
sg12
F133449046.7615
sg13
Nsbasg52
S'SWAY5'
p143
sbsS'SWAY5_2048'
p144
(iGraphics.simplified_new
SolutionHolder
p145
(dp146
g4
g5
sg6
(lp147
(iGraphics.simplified_new
Scores
p148
(dp149
g10
I32
sg11
F0.4797464563143187
sg12
F126864551.9592
sg13
Nsba(iGraphics.simplified_new
Scores
p150
(dp151
g10
I24
sg11
F0.47236314330870544
sg12
F130251188.9119
sg13
Nsba(iGraphics.simplified_new
Scores
p152
(dp153
g10
I36
sg11
F0.5990831411321242
sg12
F131264024.9715
sg13
Nsba(iGraphics.simplified_new
Scores
p154
(dp155
g10
I32
sg11
F0.46643210719605543
sg12
F135929781.9132
sg13
Nsba(iGraphics.simplified_new
Scores
p156
(dp157
g10
I27
sg11
F0.3787359052532395
sg12
F128720307.0943
sg13
Nsba(iGraphics.simplified_new
Scores
p158
(dp159
g10
I23
sg11
F0.40340644687022814
sg12
F136446050.8744
sg13
Nsba(iGraphics.simplified_new
Scores
p160
(dp161
g10
I24
sg11
F0.436826116589986
sg12
F120228649.35
sg13
Nsba(iGraphics.simplified_new
Scores
p162
(dp163
g10
I27
sg11
F0.4958992617330883
sg12
F131159914.6418
sg13
Nsba(iGraphics.simplified_new
Scores
p164
(dp165
g10
I24
sg11
F0.40565729298308284
sg12
F131576451.3126
sg13
Nsba(iGraphics.simplified_new
Scores
p166
(dp167
g10
I28
sg11
F0.4901710131549819
sg12
F124110172.7795
sg13
Nsba(iGraphics.simplified_new
Scores
p168
(dp169
g10
I24
sg11
F0.49414663334744435
sg12
F131159430.3755
sg13
Nsba(iGraphics.simplified_new
Scores
p170
(dp171
g10
I31
sg11
F0.5484837798899629
sg12
F130232970.1632
sg13
Nsba(iGraphics.simplified_new
Scores
p172
(dp173
g10
I16
sg11
F0.5630849041332668
sg12
F130811499.5486
sg13
Nsba(iGraphics.simplified_new
Scores
p174
(dp175
g10
I32
sg11
F0.4218928736194116
sg12
F136743266.1141
sg13
Nsba(iGraphics.simplified_new
Scores
p176
(dp177
g10
I31
sg11
F0.42297239883455545
sg12
F121727794.3204
sg13
Nsba(iGraphics.simplified_new
Scores
p178
(dp179
g10
I42
sg11
F0.4264758686223749
sg12
F128913206.6137
sg13
Nsba(iGraphics.simplified_new
Scores
p180
(dp181
g10
I24
sg11
F0.41533060460411775
sg12
F129908110.0323
sg13
Nsba(iGraphics.simplified_new
Scores
p182
(dp183
g10
I42
sg11
F0.4527368485496047
sg12
F133723650.5216
sg13
Nsba(iGraphics.simplified_new
Scores
p184
(dp185
g10
I34
sg11
F0.4558465847710556
sg12
F130662489.8757
sg13
Nsba(iGraphics.simplified_new
Scores
p186
(dp187
g10
I27
sg11
F0.46884602814678383
sg12
F127313694.4417
sg13
Nsbasg52
S'SWAY5'
p188
sbsS'SWAY5_10000'
p189
(iGraphics.simplified_new
SolutionHolder
p190
(dp191
g4
g5
sg6
(lp192
(iGraphics.simplified_new
Scores
p193
(dp194
g10
I73
sg11
F0.45844946088713845
sg12
F129821996.7577
sg13
Nsba(iGraphics.simplified_new
Scores
p195
(dp196
g10
I31
sg11
F0.4791994580825385
sg12
F122361522.0959
sg13
Nsba(iGraphics.simplified_new
Scores
p197
(dp198
g10
I34
sg11
F0.6255297405010299
sg12
F132073688.9582
sg13
Nsba(iGraphics.simplified_new
Scores
p199
(dp200
g10
I63
sg11
F0.475949952516868
sg12
F136880356.4611
sg13
Nsba(iGraphics.simplified_new
Scores
p201
(dp202
g10
I58
sg11
F0.4394312625385567
sg12
F133717586.1034
sg13
Nsba(iGraphics.simplified_new
Scores
p203
(dp204
g10
I51
sg11
F0.49150887349795047
sg12
F139185229.2674
sg13
Nsba(iGraphics.simplified_new
Scores
p205
(dp206
g10
I31
sg11
F0.42434761658960074
sg12
F134829396.7528
sg13
Nsba(iGraphics.simplified_new
Scores
p207
(dp208
g10
I82
sg11
F0.44982116085624047
sg12
F136907662.0039
sg13
Nsba(iGraphics.simplified_new
Scores
p209
(dp210
g10
I39
sg11
F0.4962392851406288
sg12
F133078935.0701
sg13
Nsba(iGraphics.simplified_new
Scores
p211
(dp212
g10
I68
sg11
F0.4032088926045638
sg12
F136470303.629
sg13
Nsba(iGraphics.simplified_new
Scores
p213
(dp214
g10
I82
sg11
F0.40001827680227975
sg12
F139844120.5406
sg13
Nsba(iGraphics.simplified_new
Scores
p215
(dp216
g10
I73
sg11
F0.49386857155864144
sg12
F133731679.0921
sg13
Nsba(iGraphics.simplified_new
Scores
p217
(dp218
g10
I96
sg11
F0.49740797392684366
sg12
F135030229.4475
sg13
Nsba(iGraphics.simplified_new
Scores
p219
(dp220
g10
I88
sg11
F0.4930309202914742
sg12
F138934297.8616
sg13
Nsba(iGraphics.simplified_new
Scores
p221
(dp222
g10
I39
sg11
F0.5348473065218986
sg12
F134361448.7674
sg13
Nsba(iGraphics.simplified_new
Scores
p223
(dp224
g10
I59
sg11
F0.5715589947667111
sg12
F131001882.2884
sg13
Nsba(iGraphics.simplified_new
Scores
p225
(dp226
g10
I39
sg11
F0.5252043054584808
sg12
F128360752.0348
sg13
Nsba(iGraphics.simplified_new
Scores
p227
(dp228
g10
I78
sg11
F0.4659582664846648
sg12
F134486678.4049
sg13
Nsba(iGraphics.simplified_new
Scores
p229
(dp230
g10
I58
sg11
F0.45469880907293025
sg12
F136428009.3407
sg13
Nsba(iGraphics.simplified_new
Scores
p231
(dp232
g10
I78
sg11
F0.45867746978717344
sg12
F137427055.6964
sg13
Nsbasg52
S'SWAY5'
p233
sbsS'SWAY5_4096'
p234
(iGraphics.simplified_new
SolutionHolder
p235
(dp236
g4
g5
sg6
(lp237
(iGraphics.simplified_new
Scores
p238
(dp239
g10
I56
sg11
F0.5313497441975414
sg12
F142158522.1371
sg13
Nsba(iGraphics.simplified_new
Scores
p240
(dp241
g10
I18
sg11
F0.5881912315925544
sg12
F124507024.5734
sg13
Nsba(iGraphics.simplified_new
Scores
p242
(dp243
g10
I45
sg11
F0.45601425711702503
sg12
F131221403.7135
sg13
Nsba(iGraphics.simplified_new
Scores
p244
(dp245
g10
I56
sg11
F0.4667490115222779
sg12
F137160945.5397
sg13
Nsba(iGraphics.simplified_new
Scores
p246
(dp247
g10
I48
sg11
F0.46528502452470244
sg12
F132885236.7239
sg13
Nsba(iGraphics.simplified_new
Scores
p248
(dp249
g10
I24
sg11
F0.4930840234489917
sg12
F135091524.4995
sg13
Nsba(iGraphics.simplified_new
Scores
p250
(dp251
g10
I16
sg11
F0.5466463411594825
sg12
F140990665.0863
sg13
Nsba(iGraphics.simplified_new
Scores
p252
(dp253
g10
I42
sg11
F0.4929752950433824
sg12
F136763332.6573
sg13
Nsba(iGraphics.simplified_new
Scores
p254
(dp255
g10
I18
sg11
F0.6126098701508866
sg12
F134684630.0138
sg13
Nsba(iGraphics.simplified_new
Scores
p256
(dp257
g10
I48
sg11
F0.4758213434389853
sg12
F130975160.6647
sg13
Nsba(iGraphics.simplified_new
Scores
p258
(dp259
g10
I32
sg11
F0.4407106940124401
sg12
F134169112.9848
sg13
Nsba(iGraphics.simplified_new
Scores
p260
(dp261
g10
I60
sg11
F0.5038877153591589
sg12
F134619439.1885
sg13
Nsba(iGraphics.simplified_new
Scores
p262
(dp263
g10
I16
sg11
F0.6436611590140597
sg12
F118534147.2978
sg13
Nsba(iGraphics.simplified_new
Scores
p264
(dp265
g10
I48
sg11
F0.5053269774951256
sg12
F131157410.0567
sg13
Nsba(iGraphics.simplified_new
Scores
p266
(dp267
g10
I42
sg11
F0.4453782576050749
sg12
F141064267.9598
sg13
Nsba(iGraphics.simplified_new
Scores
p268
(dp269
g10
I40
sg11
F0.4421835914161954
sg12
F130326093.2011
sg13
Nsba(iGraphics.simplified_new
Scores
p270
(dp271
g10
I54
sg11
F0.4277277272524897
sg12
F134357320.2486
sg13
Nsba(iGraphics.simplified_new
Scores
p272
(dp273
g10
I31
sg11
F0.4390274958868637
sg12
F132305382.8907
sg13
Nsba(iGraphics.simplified_new
Scores
p274
(dp275
g10
I27
sg11
F0.46525046164767425
sg12
F133545228.185
sg13
Nsba(iGraphics.simplified_new
Scores
p276
(dp277
g10
I63
sg11
F0.484034801769965
sg12
F133459533.1996
sg13
Nsbasg52
S'SWAY5'
p278
sbsS'SWAY5_512'
p279
(iGraphics.simplified_new
SolutionHolder
p280
(dp281
g4
g5
sg6
(lp282
(iGraphics.simplified_new
Scores
p283
(dp284
g10
I13
sg11
F0.4843088626890049
sg12
F122978932.6142
sg13
Nsba(iGraphics.simplified_new
Scores
p285
(dp286
g10
I16
sg11
F0.564573262008708
sg12
F122542278.5779
sg13
Nsba(iGraphics.simplified_new
Scores
p287
(dp288
g10
I16
sg11
F0.4403842118937705
sg12
F118931002.7081
sg13
Nsba(iGraphics.simplified_new
Scores
p289
(dp290
g10
I16
sg11
F0.6081959896873479
sg12
F119752832.627
sg13
Nsba(iGraphics.simplified_new
Scores
p291
(dp292
g10
I12
sg11
F0.6613858656512944
sg12
F119045417.4397
sg13
Nsba(iGraphics.simplified_new
Scores
p293
(dp294
g10
I15
sg11
F0.6326920387957456
sg12
F125389323.2255
sg13
Nsba(iGraphics.simplified_new
Scores
p295
(dp296
g10
I16
sg11
F0.7961583343685935
sg12
F133393587.2881
sg13
Nsba(iGraphics.simplified_new
Scores
p297
(dp298
g10
I16
sg11
F0.4540739235384405
sg12
F123081954.8768
sg13
Nsba(iGraphics.simplified_new
Scores
p299
(dp300
g10
I12
sg11
F0.6517924405336356
sg12
F128841586.0037
sg13
Nsba(iGraphics.simplified_new
Scores
p301
(dp302
g10
I16
sg11
F0.5253814476735095
sg12
F123236175.2965
sg13
Nsba(iGraphics.simplified_new
Scores
p303
(dp304
g10
I16
sg11
F0.38286553983564636
sg12
F118291737.2401
sg13
Nsba(iGraphics.simplified_new
Scores
p305
(dp306
g10
I15
sg11
F0.5425255484389268
sg12
F123448735.8648
sg13
Nsba(iGraphics.simplified_new
Scores
p307
(dp308
g10
I18
sg11
F0.5653271892907274
sg12
F118436411.7234
sg13
Nsba(iGraphics.simplified_new
Scores
p309
(dp310
g10
I12
sg11
F0.47295093760736506
sg12
F126847064.1199
sg13
Nsba(iGraphics.simplified_new
Scores
p311
(dp312
g10
I16
sg11
F0.5077907063068035
sg12
F115697940.4536
sg13
Nsba(iGraphics.simplified_new
Scores
p313
(dp314
g10
I16
sg11
F0.48963739202112017
sg12
F116501566.4675
sg13
Nsba(iGraphics.simplified_new
Scores
p315
(dp316
g10
I16
sg11
F0.5836374372437517
sg12
F117113115.8051
sg13
Nsba(iGraphics.simplified_new
Scores
p317
(dp318
g10
I16
sg11
F0.6679502785769427
sg12
F123121277.0157
sg13
Nsba(iGraphics.simplified_new
Scores
p319
(dp320
g10
I12
sg11
F0.6205496130491229
sg12
F126262141.5514
sg13
Nsba(iGraphics.simplified_new
Scores
p321
(dp322
g10
I14
sg11
F0.5022483337259641
sg12
F125024917.3002
sg13
Nsbasg52
S'SWAY5'
p323
sbsS'SWAY5_100'
p324
(iGraphics.simplified_new
SolutionHolder
p325
(dp326
g4
g5
sg6
(lp327
(iGraphics.simplified_new
Scores
p328
(dp329
g10
I6
sg11
F0.744929462792436
sg12
F115359050.5011
sg13
Nsba(iGraphics.simplified_new
Scores
p330
(dp331
g10
I6
sg11
F0.6124458298678301
sg12
F116897759.943
sg13
Nsba(iGraphics.simplified_new
Scores
p332
(dp333
g10
I6
sg11
F0.8673010511396944
sg12
F113632251.3705
sg13
Nsba(iGraphics.simplified_new
Scores
p334
(dp335
g10
I6
sg11
F0.662214743856191
sg12
F121883211.264
sg13
Nsba(iGraphics.simplified_new
Scores
p336
(dp337
g10
I6
sg11
F0.5780875275570211
sg12
F123268652.9949
sg13
Nsba(iGraphics.simplified_new
Scores
p338
(dp339
g10
I6
sg11
F0.6421485004726482
sg12
F128945146.126
sg13
Nsba(iGraphics.simplified_new
Scores
p340
(dp341
g10
I6
sg11
F0.7690593682884117
sg12
F117775018.8085
sg13
Nsba(iGraphics.simplified_new
Scores
p342
(dp343
g10
I7
sg11
F0.6600041392635128
sg12
F137070521.7119
sg13
Nsba(iGraphics.simplified_new
Scores
p344
(dp345
g10
I7
sg11
F0.7009496837090733
sg12
F115980184.8235
sg13
Nsba(iGraphics.simplified_new
Scores
p346
(dp347
g10
I6
sg11
F0.6201247851806201
sg12
F103747334.978
sg13
Nsba(iGraphics.simplified_new
Scores
p348
(dp349
g10
I6
sg11
F0.6994982212110514
sg12
F112351967.8349
sg13
Nsba(iGraphics.simplified_new
Scores
p350
(dp351
g10
I6
sg11
F0.6971685365103011
sg12
F120857150.1204
sg13
Nsba(iGraphics.simplified_new
Scores
p352
(dp353
g10
I7
sg11
F0.6684195400237863
sg12
F120975409.86
sg13
Nsba(iGraphics.simplified_new
Scores
p354
(dp355
g10
I6
sg11
F0.6806677302166202
sg12
F130131051.5965
sg13
Nsba(iGraphics.simplified_new
Scores
p356
(dp357
g10
I9
sg11
F0.5345114985968841
sg12
F125521413.5432
sg13
Nsba(iGraphics.simplified_new
Scores
p358
(dp359
g10
I6
sg11
F0.795627230202571
sg12
F118557361.8467
sg13
Nsba(iGraphics.simplified_new
Scores
p360
(dp361
g10
I6
sg11
F0.7145597671862277
sg12
F127684099.0611
sg13
Nsba(iGraphics.simplified_new
Scores
p362
(dp363
g10
I7
sg11
F0.7352631347367025
sg12
F110184882.7159
sg13
Nsba(iGraphics.simplified_new
Scores
p364
(dp365
g10
I6
sg11
F0.736717493809293
sg12
F123479573.5411
sg13
Nsba(iGraphics.simplified_new
Scores
p366
(dp367
g10
I6
sg11
F0.673671266520605
sg12
F104914411.2355
sg13
Nsbasg52
S'SWAY5'
p368
sbsS'NSGAII_100'
p369
(iGraphics.simplified_new
SolutionHolder
p370
(dp371
g4
g5
sg6
(lp372
(iGraphics.simplified_new
Scores
p373
(dp374
g10
I100
sg11
F0.7377041558281732
sg12
F142797037.1636
sg13
Nsba(iGraphics.simplified_new
Scores
p375
(dp376
g10
I100
sg11
F0.6847681565709205
sg12
F141845311.7344
sg13
Nsba(iGraphics.simplified_new
Scores
p377
(dp378
g10
I100
sg11
F0.7578968382646137
sg12
F143027177.4054
sg13
Nsba(iGraphics.simplified_new
Scores
p379
(dp380
g10
I100
sg11
F0.7562241637199687
sg12
F141174798.3597
sg13
Nsba(iGraphics.simplified_new
Scores
p381
(dp382
g10
I100
sg11
F0.6506732392360427
sg12
F141539793.8077
sg13
Nsba(iGraphics.simplified_new
Scores
p383
(dp384
g10
I100
sg11
F0.6270451927105676
sg12
F143326348.1436
sg13
Nsba(iGraphics.simplified_new
Scores
p385
(dp386
g10
I100
sg11
F0.6462660405403324
sg12
F144345049.5236
sg13
Nsba(iGraphics.simplified_new
Scores
p387
(dp388
g10
I100
sg11
F0.7392530526707979
sg12
F142570422.4455
sg13
Nsba(iGraphics.simplified_new
Scores
p389
(dp390
g10
I100
sg11
F0.713884316325645
sg12
F142818803.2673
sg13
Nsba(iGraphics.simplified_new
Scores
p391
(dp392
g10
I100
sg11
F0.745352421673668
sg12
F143979404.0273
sg13
Nsba(iGraphics.simplified_new
Scores
p393
(dp394
g10
I100
sg11
F0.6413663750824797
sg12
F143170779.9614
sg13
Nsba(iGraphics.simplified_new
Scores
p395
(dp396
g10
I100
sg11
F0.6785751719836727
sg12
F143319591.2711
sg13
Nsba(iGraphics.simplified_new
Scores
p397
(dp398
g10
I100
sg11
F0.7516093543417909
sg12
F143756336.3327
sg13
Nsba(iGraphics.simplified_new
Scores
p399
(dp400
g10
I100
sg11
F0.8023828970592684
sg12
F143015277.9301
sg13
Nsba(iGraphics.simplified_new
Scores
p401
(dp402
g10
I100
sg11
F0.8402428443553512
sg12
F142217747.7994
sg13
Nsba(iGraphics.simplified_new
Scores
p403
(dp404
g10
I100
sg11
F0.6589948128527127
sg12
F141892622.1164
sg13
Nsba(iGraphics.simplified_new
Scores
p405
(dp406
g10
I100
sg11
F0.6804356079961673
sg12
F144190926.9905
sg13
Nsba(iGraphics.simplified_new
Scores
p407
(dp408
g10
I100
sg11
F0.7198918526808078
sg12
F144068929.2447
sg13
Nsba(iGraphics.simplified_new
Scores
p409
(dp410
g10
I100
sg11
F0.7992240855929358
sg12
F142878342.0227
sg13
Nsba(iGraphics.simplified_new
Scores
p411
(dp412
g10
I100
sg11
F0.7220268629032662
sg12
F142442012.7282
sg13
Nsbasg52
S'NSGAII'
p413
sbs.