(dp0
S'SWAY5'
p1
(dp2
S'normal'
p3
(lp4
F124439949397.3258
a(lp5
F117439350133.9357
aF117996978565.7617
aF119525653722.3084
aF118572230787.1082
aF117841893528.9382
aF117163730757.8323
aF116447402889.2328
aF118849684350.803
aF119424367468.0634
aF118290035224.1047
aassS'GALE'
p6
(dp7
g3
(lp8
F124439949397.3258
a(lp9
F114713697498.8338
aF116951299925.2452
aF112637228260.2983
aF114267852664.5529
aF113772909902.2899
aF113239114761.1392
aF114991349336.9733
aF115026220448.6188
aF116650637344.5789
aF117462910245.1279
aassS'NSGAII'
p10
(dp11
g3
(lp12
F124439949397.3258
a(lp13
F120329464470.4128
aF120329464470.4128
aF120103268534.369
aF120329464470.4128
aF120139006920.8099
aF119926987523.6758
aF120492530212.6266
aF120541948722.1726
aF120273909529.6833
aF120671594516.8423
aassS'SPEA2'
p14
(dp15
g3
(lp16
F124439949397.3258
a(lp17
F120648078158.2236
aF120174932570.4042
aF120491661989.8068
aF120193509286.4463
aF120367305489.9387
aF120188512001.7599
aF120239401205.9424
aF120317349586.2194
aF120580880147.6691
aF120773581695.7648
aassS'SWAY2'
p18
(dp19
g3
(lp20
F124439949397.3258
a(lp21
F114873771509.9268
aF115732871648.2033
aF115859202543.9804
aF116659573075.856
aF118068732106.1637
aF118078821821.0479
aF115979930229.157
aF117507747520.3712
aF114303400236.5426
aF115776567230.7509
aass.