(dp0
S'SWAY5'
p1
(dp2
S'normal'
p3
(lp4
F124928052892.8526
a(lp5
F123290015996.002
aF119121956721.6909
aF104102649783.7276
aF123417936468.2256
aF111747722264.4559
aF117489092681.1065
aF118919788508.2152
aF117354341921.3716
aF114359731302.6502
aF118410849063.5548
aassS'GALE'
p6
(dp7
g3
(lp8
F124928052892.8526
a(lp9
F104655803276.2389
aF82596420208.9513
aF0.0
aF120437215020.3845
aF0.0
aF86670771830.4293
aF113420595835.0189
aF71376367279.5981
aF0.0
aF10039303183.9282
aassS'NSGAII'
p10
(dp11
g3
(lp12
F124928052892.8526
a(lp13
F123708884140.8302
aF123974318636.1022
aF124232132717.7256
aF123553033940.4411
aF124348198523.8714
aF124403035655.6258
aF123299234249.7131
aF123496308064.2635
aF123743923572.5205
aF124250922160.6183
aassS'SPEA2'
p14
(dp15
g3
(lp16
F124928052892.8526
a(lp17
F123601893744.8019
aF124447122190.4633
aF123254229286.9678
aF124107180559.5107
aF123844091621.1322
aF123982019514.5781
aF123571811506.8973
aF124270160695.9598
aF123450551272.0934
aF123952568675.426
aassS'SWAY2'
p18
(dp19
g3
(lp20
F124928052892.8526
a(lp21
F101867659924.285
aF108299154440.2282
aF91849896147.0362
aF7356180490.4119
aF0.0
aF0.0
aF0.0
aF91957722819.7241
aF103917965351.548
aF83461063899.4405
aass.