(dp0
S'SWAY5'
p1
(dp2
S'normal'
p3
(lp4
F0.40860912311089564
a(lp5
F0.7466856881158094
aF0.7734009067443504
aF0.7353982029122822
aF0.655562210013908
aF0.7676815279366043
aF0.6339466758981714
aF0.6872366906384744
aF0.6334960340144855
aF0.6235599154363766
aF0.552576164375483
aassS'GALE'
p6
(dp7
g3
(lp8
F0.40860912311089564
a(lp9
F0.629509910043738
aF0.809351811299298
aF0.8320887171873258
aF0.7573310782429405
aF0.6377993326767021
aF0.6299869936741138
aF0.5014585136686445
aF0.4859515656366486
aF0.6781462327278363
aF0.6737221509827976
aassS'NSGAII'
p10
(dp11
g3
(lp12
F0.40860912311089564
a(lp13
F1.1633542454669914
aF1.12103913726187
aF0.8794896125076941
aF0.8624709312979281
aF1.069901321532542
aF1.147056581503591
aF0.9242214699634452
aF1.2387549151937425
aF1.0792723814342708
aF0.990814896249809
aassS'SPEA2'
p14
(dp15
g3
(lp16
F0.40860912311089564
a(lp17
F1.1241837963321641
aF1.1109335024961278
aF1.176957845178506
aF0.9949974592745712
aF1.0733094816975701
aF1.0824850086704214
aF0.9483842518899017
aF1.1561999670087122
aF1.066238593089445
aF1.0023052116364188
aassS'SWAY2'
p18
(dp19
g3
(lp20
F0.40860912311089564
a(lp21
F0.6542081657830797
aF0.7504015730471254
aF0.7433557366019404
aF0.6549005985724652
aF0.6430668889027523
aF0.8572461651428298
aF0.502217800297519
aF0.730875146395457
aF0.8420000664933289
aF0.8463168426026351
aass.