(dp0
S'SWAY5'
p1
(dp2
S'normal'
p3
(lp4
F0.8745447465140774
a(lp5
F0.7067603102376349
aF0.7568247375757717
aF0.7797244569127264
aF0.6945378053942941
aF0.9072700206717528
aF0.9380917330176191
aF0.7424907447739777
aF0.7807098158816421
aF0.8395893890796299
aF0.7357875996417006
aassS'GALE'
p6
(dp7
g3
(lp8
F0.8745447465140774
a(lp9
F0.06196833036882258
aF0.3896811997971995
aF0.9310608058822322
aF0.7190146279305604
aF0.02024906430482186
aF0.11158820318845161
aF0.16059105518729047
aF0.3780055570553451
aF0.8145085234617349
aF0.09827563698687607
aassS'NSGAII'
p10
(dp11
g3
(lp12
F0.8745447465140774
a(lp13
F0.8022210893857707
aF1.0380805635243786
aF0.8924327570691502
aF1.0323215705988453
aF1.0380124750483712
aF0.9552549081367333
aF0.9584071647530206
aF0.9331228905505234
aF0.9000823055936534
aF1.0016627726557243
aassS'SPEA2'
p14
(dp15
g3
(lp16
F0.8745447465140774
a(lp17
F0.7927725153896279
aF0.778273693900938
aF0.8734599377951529
aF0.8129647297934547
aF0.7749997163134679
aF0.9530179925719985
aF0.8831184085845012
aF0.8371127114191076
aF0.8925935091514108
aF0.9294903741380482
aassS'SWAY2'
p18
(dp19
g3
(lp20
F0.8745447465140774
a(lp21
F0.27461922584147
aF0.8972701663793632
aF0.5664884752836162
aF0.8007541171143542
aF0.38941248732982425
aF0.7908202458458193
aF0.5214389015824136
aF1.3921377961221313
aF0.741385405332391
aF0.481590251550333
aass.